   1              		.syntax unified
   2              		.cpu cortex-m4
   3              		.fpu softvfp
   4              		.eabi_attribute 20, 1
   5              		.eabi_attribute 21, 1
   6              		.eabi_attribute 23, 3
   7              		.eabi_attribute 24, 1
   8              		.eabi_attribute 25, 1
   9              		.eabi_attribute 26, 1
  10              		.eabi_attribute 30, 6
  11              		.eabi_attribute 34, 1
  12              		.eabi_attribute 18, 4
  13              		.thumb
  14              		.file	"misc.c"
  15              		.text
  16              	.Ltext0:
  17              		.cfi_sections	.debug_frame
  18              		.align	2
  19              		.global	NVIC_PriorityGroupConfig
  20              		.thumb
  21              		.thumb_func
  23              	NVIC_PriorityGroupConfig:
  24              	.LFB110:
  25              		.file 1 "../Libraries/STM32F4xx_StdPeriph_Driver/src/misc.c"
   1:../Libraries/STM32F4xx_StdPeriph_Driver/src/misc.c **** /**
   2:../Libraries/STM32F4xx_StdPeriph_Driver/src/misc.c ****   ******************************************************************************
   3:../Libraries/STM32F4xx_StdPeriph_Driver/src/misc.c ****   * @file    misc.c
   4:../Libraries/STM32F4xx_StdPeriph_Driver/src/misc.c ****   * @author  MCD Application Team
   5:../Libraries/STM32F4xx_StdPeriph_Driver/src/misc.c ****   * @version V1.0.0
   6:../Libraries/STM32F4xx_StdPeriph_Driver/src/misc.c ****   * @date    30-September-2011
   7:../Libraries/STM32F4xx_StdPeriph_Driver/src/misc.c ****   * @brief   This file provides all the miscellaneous firmware functions (add-on
   8:../Libraries/STM32F4xx_StdPeriph_Driver/src/misc.c ****   *          to CMSIS functions).
   9:../Libraries/STM32F4xx_StdPeriph_Driver/src/misc.c ****   *          
  10:../Libraries/STM32F4xx_StdPeriph_Driver/src/misc.c ****   *  @verbatim   
  11:../Libraries/STM32F4xx_StdPeriph_Driver/src/misc.c ****   *                               
  12:../Libraries/STM32F4xx_StdPeriph_Driver/src/misc.c ****   *          ===================================================================      
  13:../Libraries/STM32F4xx_StdPeriph_Driver/src/misc.c ****   *                        How to configure Interrupts using driver 
  14:../Libraries/STM32F4xx_StdPeriph_Driver/src/misc.c ****   *          ===================================================================      
  15:../Libraries/STM32F4xx_StdPeriph_Driver/src/misc.c ****   * 
  16:../Libraries/STM32F4xx_StdPeriph_Driver/src/misc.c ****   *            This section provide functions allowing to configure the NVIC interrupts (IRQ).
  17:../Libraries/STM32F4xx_StdPeriph_Driver/src/misc.c ****   *            The Cortex-M4 exceptions are managed by CMSIS functions.
  18:../Libraries/STM32F4xx_StdPeriph_Driver/src/misc.c ****   *
  19:../Libraries/STM32F4xx_StdPeriph_Driver/src/misc.c ****   *            1. Configure the NVIC Priority Grouping using NVIC_PriorityGroupConfig()
  20:../Libraries/STM32F4xx_StdPeriph_Driver/src/misc.c ****   *                function according to the following table.
  21:../Libraries/STM32F4xx_StdPeriph_Driver/src/misc.c ****  
  22:../Libraries/STM32F4xx_StdPeriph_Driver/src/misc.c ****   *  The table below gives the allowed values of the pre-emption priority and subpriority according
  23:../Libraries/STM32F4xx_StdPeriph_Driver/src/misc.c ****   *  to the Priority Grouping configuration performed by NVIC_PriorityGroupConfig function
  24:../Libraries/STM32F4xx_StdPeriph_Driver/src/misc.c ****   *    ============================================================================================
  25:../Libraries/STM32F4xx_StdPeriph_Driver/src/misc.c ****   *      NVIC_PriorityGroup   | NVIC_IRQChannelPreemptionPriority | NVIC_IRQChannelSubPriority  |  
  26:../Libraries/STM32F4xx_StdPeriph_Driver/src/misc.c ****   *    ============================================================================================
  27:../Libraries/STM32F4xx_StdPeriph_Driver/src/misc.c ****   *     NVIC_PriorityGroup_0  |                0                  |            0-15             | 0
  28:../Libraries/STM32F4xx_StdPeriph_Driver/src/misc.c ****   *                           |                                   |                             | 4
  29:../Libraries/STM32F4xx_StdPeriph_Driver/src/misc.c ****   *    --------------------------------------------------------------------------------------------
  30:../Libraries/STM32F4xx_StdPeriph_Driver/src/misc.c ****   *     NVIC_PriorityGroup_1  |                0-1                |            0-7              | 1
  31:../Libraries/STM32F4xx_StdPeriph_Driver/src/misc.c ****   *                           |                                   |                             | 3
  32:../Libraries/STM32F4xx_StdPeriph_Driver/src/misc.c ****   *    --------------------------------------------------------------------------------------------
  33:../Libraries/STM32F4xx_StdPeriph_Driver/src/misc.c ****   *     NVIC_PriorityGroup_2  |                0-3                |            0-3              | 2
  34:../Libraries/STM32F4xx_StdPeriph_Driver/src/misc.c ****   *                           |                                   |                             | 2
  35:../Libraries/STM32F4xx_StdPeriph_Driver/src/misc.c ****   *    --------------------------------------------------------------------------------------------
  36:../Libraries/STM32F4xx_StdPeriph_Driver/src/misc.c ****   *     NVIC_PriorityGroup_3  |                0-7                |            0-1              | 3
  37:../Libraries/STM32F4xx_StdPeriph_Driver/src/misc.c ****   *                           |                                   |                             | 1
  38:../Libraries/STM32F4xx_StdPeriph_Driver/src/misc.c ****   *    --------------------------------------------------------------------------------------------
  39:../Libraries/STM32F4xx_StdPeriph_Driver/src/misc.c ****   *     NVIC_PriorityGroup_4  |                0-15               |            0                | 4
  40:../Libraries/STM32F4xx_StdPeriph_Driver/src/misc.c ****   *                           |                                   |                             | 0
  41:../Libraries/STM32F4xx_StdPeriph_Driver/src/misc.c ****   *    ============================================================================================
  42:../Libraries/STM32F4xx_StdPeriph_Driver/src/misc.c ****   *
  43:../Libraries/STM32F4xx_StdPeriph_Driver/src/misc.c ****   *            2. Enable and Configure the priority of the selected IRQ Channels using NVIC_Init() 
  44:../Libraries/STM32F4xx_StdPeriph_Driver/src/misc.c ****   *
  45:../Libraries/STM32F4xx_StdPeriph_Driver/src/misc.c ****   * @note  When the NVIC_PriorityGroup_0 is selected, IRQ pre-emption is no more possible. 
  46:../Libraries/STM32F4xx_StdPeriph_Driver/src/misc.c ****   *        The pending IRQ priority will be managed only by the subpriority.
  47:../Libraries/STM32F4xx_StdPeriph_Driver/src/misc.c ****   *
  48:../Libraries/STM32F4xx_StdPeriph_Driver/src/misc.c ****   * @note  IRQ priority order (sorted by highest to lowest priority):
  49:../Libraries/STM32F4xx_StdPeriph_Driver/src/misc.c ****   *         - Lowest pre-emption priority
  50:../Libraries/STM32F4xx_StdPeriph_Driver/src/misc.c ****   *         - Lowest subpriority
  51:../Libraries/STM32F4xx_StdPeriph_Driver/src/misc.c ****   *         - Lowest hardware priority (IRQ number)
  52:../Libraries/STM32F4xx_StdPeriph_Driver/src/misc.c ****   *
  53:../Libraries/STM32F4xx_StdPeriph_Driver/src/misc.c ****   *  @endverbatim
  54:../Libraries/STM32F4xx_StdPeriph_Driver/src/misc.c ****   *
  55:../Libraries/STM32F4xx_StdPeriph_Driver/src/misc.c ****   ******************************************************************************
  56:../Libraries/STM32F4xx_StdPeriph_Driver/src/misc.c ****   * @attention
  57:../Libraries/STM32F4xx_StdPeriph_Driver/src/misc.c ****   *
  58:../Libraries/STM32F4xx_StdPeriph_Driver/src/misc.c ****   * THE PRESENT FIRMWARE WHICH IS FOR GUIDANCE ONLY AIMS AT PROVIDING CUSTOMERS
  59:../Libraries/STM32F4xx_StdPeriph_Driver/src/misc.c ****   * WITH CODING INFORMATION REGARDING THEIR PRODUCTS IN ORDER FOR THEM TO SAVE
  60:../Libraries/STM32F4xx_StdPeriph_Driver/src/misc.c ****   * TIME. AS A RESULT, STMICROELECTRONICS SHALL NOT BE HELD LIABLE FOR ANY
  61:../Libraries/STM32F4xx_StdPeriph_Driver/src/misc.c ****   * DIRECT, INDIRECT OR CONSEQUENTIAL DAMAGES WITH RESPECT TO ANY CLAIMS ARISING
  62:../Libraries/STM32F4xx_StdPeriph_Driver/src/misc.c ****   * FROM THE CONTENT OF SUCH FIRMWARE AND/OR THE USE MADE BY CUSTOMERS OF THE
  63:../Libraries/STM32F4xx_StdPeriph_Driver/src/misc.c ****   * CODING INFORMATION CONTAINED HEREIN IN CONNECTION WITH THEIR PRODUCTS.
  64:../Libraries/STM32F4xx_StdPeriph_Driver/src/misc.c ****   *
  65:../Libraries/STM32F4xx_StdPeriph_Driver/src/misc.c ****   * <h2><center>&copy; COPYRIGHT 2011 STMicroelectronics</center></h2>
  66:../Libraries/STM32F4xx_StdPeriph_Driver/src/misc.c ****   ******************************************************************************
  67:../Libraries/STM32F4xx_StdPeriph_Driver/src/misc.c ****   */
  68:../Libraries/STM32F4xx_StdPeriph_Driver/src/misc.c **** 
  69:../Libraries/STM32F4xx_StdPeriph_Driver/src/misc.c **** /* Includes ------------------------------------------------------------------*/
  70:../Libraries/STM32F4xx_StdPeriph_Driver/src/misc.c **** #include "misc.h"
  71:../Libraries/STM32F4xx_StdPeriph_Driver/src/misc.c **** 
  72:../Libraries/STM32F4xx_StdPeriph_Driver/src/misc.c **** /** @addtogroup STM32F4xx_StdPeriph_Driver
  73:../Libraries/STM32F4xx_StdPeriph_Driver/src/misc.c ****   * @{
  74:../Libraries/STM32F4xx_StdPeriph_Driver/src/misc.c ****   */
  75:../Libraries/STM32F4xx_StdPeriph_Driver/src/misc.c **** 
  76:../Libraries/STM32F4xx_StdPeriph_Driver/src/misc.c **** /** @defgroup MISC 
  77:../Libraries/STM32F4xx_StdPeriph_Driver/src/misc.c ****   * @brief MISC driver modules
  78:../Libraries/STM32F4xx_StdPeriph_Driver/src/misc.c ****   * @{
  79:../Libraries/STM32F4xx_StdPeriph_Driver/src/misc.c ****   */
  80:../Libraries/STM32F4xx_StdPeriph_Driver/src/misc.c **** 
  81:../Libraries/STM32F4xx_StdPeriph_Driver/src/misc.c **** /* Private typedef -----------------------------------------------------------*/
  82:../Libraries/STM32F4xx_StdPeriph_Driver/src/misc.c **** /* Private define ------------------------------------------------------------*/
  83:../Libraries/STM32F4xx_StdPeriph_Driver/src/misc.c **** #define AIRCR_VECTKEY_MASK    ((uint32_t)0x05FA0000)
  84:../Libraries/STM32F4xx_StdPeriph_Driver/src/misc.c **** 
  85:../Libraries/STM32F4xx_StdPeriph_Driver/src/misc.c **** /* Private macro -------------------------------------------------------------*/
  86:../Libraries/STM32F4xx_StdPeriph_Driver/src/misc.c **** /* Private variables ---------------------------------------------------------*/
  87:../Libraries/STM32F4xx_StdPeriph_Driver/src/misc.c **** /* Private function prototypes -----------------------------------------------*/
  88:../Libraries/STM32F4xx_StdPeriph_Driver/src/misc.c **** /* Private functions ---------------------------------------------------------*/
  89:../Libraries/STM32F4xx_StdPeriph_Driver/src/misc.c **** 
  90:../Libraries/STM32F4xx_StdPeriph_Driver/src/misc.c **** /** @defgroup MISC_Private_Functions
  91:../Libraries/STM32F4xx_StdPeriph_Driver/src/misc.c ****   * @{
  92:../Libraries/STM32F4xx_StdPeriph_Driver/src/misc.c ****   */
  93:../Libraries/STM32F4xx_StdPeriph_Driver/src/misc.c **** 
  94:../Libraries/STM32F4xx_StdPeriph_Driver/src/misc.c **** /**
  95:../Libraries/STM32F4xx_StdPeriph_Driver/src/misc.c ****   * @brief  Configures the priority grouping: pre-emption priority and subpriority.
  96:../Libraries/STM32F4xx_StdPeriph_Driver/src/misc.c ****   * @param  NVIC_PriorityGroup: specifies the priority grouping bits length. 
  97:../Libraries/STM32F4xx_StdPeriph_Driver/src/misc.c ****   *   This parameter can be one of the following values:
  98:../Libraries/STM32F4xx_StdPeriph_Driver/src/misc.c ****   *     @arg NVIC_PriorityGroup_0: 0 bits for pre-emption priority
  99:../Libraries/STM32F4xx_StdPeriph_Driver/src/misc.c ****   *                                4 bits for subpriority
 100:../Libraries/STM32F4xx_StdPeriph_Driver/src/misc.c ****   *     @arg NVIC_PriorityGroup_1: 1 bits for pre-emption priority
 101:../Libraries/STM32F4xx_StdPeriph_Driver/src/misc.c ****   *                                3 bits for subpriority
 102:../Libraries/STM32F4xx_StdPeriph_Driver/src/misc.c ****   *     @arg NVIC_PriorityGroup_2: 2 bits for pre-emption priority
 103:../Libraries/STM32F4xx_StdPeriph_Driver/src/misc.c ****   *                                2 bits for subpriority
 104:../Libraries/STM32F4xx_StdPeriph_Driver/src/misc.c ****   *     @arg NVIC_PriorityGroup_3: 3 bits for pre-emption priority
 105:../Libraries/STM32F4xx_StdPeriph_Driver/src/misc.c ****   *                                1 bits for subpriority
 106:../Libraries/STM32F4xx_StdPeriph_Driver/src/misc.c ****   *     @arg NVIC_PriorityGroup_4: 4 bits for pre-emption priority
 107:../Libraries/STM32F4xx_StdPeriph_Driver/src/misc.c ****   *                                0 bits for subpriority
 108:../Libraries/STM32F4xx_StdPeriph_Driver/src/misc.c ****   * @note   When the NVIC_PriorityGroup_0 is selected, IRQ pre-emption is no more possible. 
 109:../Libraries/STM32F4xx_StdPeriph_Driver/src/misc.c ****   *         The pending IRQ priority will be managed only by the subpriority. 
 110:../Libraries/STM32F4xx_StdPeriph_Driver/src/misc.c ****   * @retval None
 111:../Libraries/STM32F4xx_StdPeriph_Driver/src/misc.c ****   */
 112:../Libraries/STM32F4xx_StdPeriph_Driver/src/misc.c **** void NVIC_PriorityGroupConfig(uint32_t NVIC_PriorityGroup)
 113:../Libraries/STM32F4xx_StdPeriph_Driver/src/misc.c **** {
  26              		.loc 1 113 0
  27              		.cfi_startproc
  28              		@ args = 0, pretend = 0, frame = 8
  29              		@ frame_needed = 1, uses_anonymous_args = 0
  30              		@ link register save eliminated.
  31 0000 80B4     		push	{r7}
  32              	.LCFI0:
  33              		.cfi_def_cfa_offset 4
  34              		.cfi_offset 7, -4
  35 0002 83B0     		sub	sp, sp, #12
  36              	.LCFI1:
  37              		.cfi_def_cfa_offset 16
  38 0004 00AF     		add	r7, sp, #0
  39              	.LCFI2:
  40              		.cfi_def_cfa_register 7
  41 0006 7860     		str	r0, [r7, #4]
 114:../Libraries/STM32F4xx_StdPeriph_Driver/src/misc.c ****   /* Check the parameters */
 115:../Libraries/STM32F4xx_StdPeriph_Driver/src/misc.c ****   assert_param(IS_NVIC_PRIORITY_GROUP(NVIC_PriorityGroup));
 116:../Libraries/STM32F4xx_StdPeriph_Driver/src/misc.c ****   
 117:../Libraries/STM32F4xx_StdPeriph_Driver/src/misc.c ****   /* Set the PRIGROUP[10:8] bits according to NVIC_PriorityGroup value */
 118:../Libraries/STM32F4xx_StdPeriph_Driver/src/misc.c ****   SCB->AIRCR = AIRCR_VECTKEY_MASK | NVIC_PriorityGroup;
  42              		.loc 1 118 0
  43 0008 054A     		ldr	r2, .L2
  44 000a 7B68     		ldr	r3, [r7, #4]
  45 000c 43F0BF63 		orr	r3, r3, #100139008
  46 0010 43F40033 		orr	r3, r3, #131072
  47 0014 D360     		str	r3, [r2, #12]
 119:../Libraries/STM32F4xx_StdPeriph_Driver/src/misc.c **** }
  48              		.loc 1 119 0
  49 0016 07F10C07 		add	r7, r7, #12
  50 001a BD46     		mov	sp, r7
  51 001c 80BC     		pop	{r7}
  52 001e 7047     		bx	lr
  53              	.L3:
  54              		.align	2
  55              	.L2:
  56 0020 00ED00E0 		.word	-536810240
  57              		.cfi_endproc
  58              	.LFE110:
  60              		.align	2
  61              		.global	NVIC_Init
  62              		.thumb
  63              		.thumb_func
  65              	NVIC_Init:
  66              	.LFB111:
 120:../Libraries/STM32F4xx_StdPeriph_Driver/src/misc.c **** 
 121:../Libraries/STM32F4xx_StdPeriph_Driver/src/misc.c **** /**
 122:../Libraries/STM32F4xx_StdPeriph_Driver/src/misc.c ****   * @brief  Initializes the NVIC peripheral according to the specified
 123:../Libraries/STM32F4xx_StdPeriph_Driver/src/misc.c ****   *         parameters in the NVIC_InitStruct.
 124:../Libraries/STM32F4xx_StdPeriph_Driver/src/misc.c ****   * @note   To configure interrupts priority correctly, the NVIC_PriorityGroupConfig()
 125:../Libraries/STM32F4xx_StdPeriph_Driver/src/misc.c ****   *         function should be called before. 
 126:../Libraries/STM32F4xx_StdPeriph_Driver/src/misc.c ****   * @param  NVIC_InitStruct: pointer to a NVIC_InitTypeDef structure that contains
 127:../Libraries/STM32F4xx_StdPeriph_Driver/src/misc.c ****   *         the configuration information for the specified NVIC peripheral.
 128:../Libraries/STM32F4xx_StdPeriph_Driver/src/misc.c ****   * @retval None
 129:../Libraries/STM32F4xx_StdPeriph_Driver/src/misc.c ****   */
 130:../Libraries/STM32F4xx_StdPeriph_Driver/src/misc.c **** void NVIC_Init(NVIC_InitTypeDef* NVIC_InitStruct)
 131:../Libraries/STM32F4xx_StdPeriph_Driver/src/misc.c **** {
  67              		.loc 1 131 0
  68              		.cfi_startproc
  69              		@ args = 0, pretend = 0, frame = 16
  70              		@ frame_needed = 1, uses_anonymous_args = 0
  71              		@ link register save eliminated.
  72 0024 80B4     		push	{r7}
  73              	.LCFI3:
  74              		.cfi_def_cfa_offset 4
  75              		.cfi_offset 7, -4
  76 0026 85B0     		sub	sp, sp, #20
  77              	.LCFI4:
  78              		.cfi_def_cfa_offset 24
  79 0028 00AF     		add	r7, sp, #0
  80              	.LCFI5:
  81              		.cfi_def_cfa_register 7
  82 002a 7860     		str	r0, [r7, #4]
 132:../Libraries/STM32F4xx_StdPeriph_Driver/src/misc.c ****   uint8_t tmppriority = 0x00, tmppre = 0x00, tmpsub = 0x0F;
  83              		.loc 1 132 0
  84 002c 4FF00003 		mov	r3, #0
  85 0030 FB73     		strb	r3, [r7, #15]
  86 0032 4FF00003 		mov	r3, #0
  87 0036 BB73     		strb	r3, [r7, #14]
  88 0038 4FF00F03 		mov	r3, #15
  89 003c 7B73     		strb	r3, [r7, #13]
 133:../Libraries/STM32F4xx_StdPeriph_Driver/src/misc.c ****   
 134:../Libraries/STM32F4xx_StdPeriph_Driver/src/misc.c ****   /* Check the parameters */
 135:../Libraries/STM32F4xx_StdPeriph_Driver/src/misc.c ****   assert_param(IS_FUNCTIONAL_STATE(NVIC_InitStruct->NVIC_IRQChannelCmd));
 136:../Libraries/STM32F4xx_StdPeriph_Driver/src/misc.c ****   assert_param(IS_NVIC_PREEMPTION_PRIORITY(NVIC_InitStruct->NVIC_IRQChannelPreemptionPriority));  
 137:../Libraries/STM32F4xx_StdPeriph_Driver/src/misc.c ****   assert_param(IS_NVIC_SUB_PRIORITY(NVIC_InitStruct->NVIC_IRQChannelSubPriority));
 138:../Libraries/STM32F4xx_StdPeriph_Driver/src/misc.c ****     
 139:../Libraries/STM32F4xx_StdPeriph_Driver/src/misc.c ****   if (NVIC_InitStruct->NVIC_IRQChannelCmd != DISABLE)
  90              		.loc 1 139 0
  91 003e 7B68     		ldr	r3, [r7, #4]
  92 0040 DB78     		ldrb	r3, [r3, #3]	@ zero_extendqisi2
  93 0042 002B     		cmp	r3, #0
  94 0044 3CD0     		beq	.L5
 140:../Libraries/STM32F4xx_StdPeriph_Driver/src/misc.c ****   {
 141:../Libraries/STM32F4xx_StdPeriph_Driver/src/misc.c ****     /* Compute the Corresponding IRQ Priority --------------------------------*/    
 142:../Libraries/STM32F4xx_StdPeriph_Driver/src/misc.c ****     tmppriority = (0x700 - ((SCB->AIRCR) & (uint32_t)0x700))>> 0x08;
  95              		.loc 1 142 0
  96 0046 2A4B     		ldr	r3, .L7
  97 0048 DB68     		ldr	r3, [r3, #12]
  98 004a 6FEA0303 		mvn	r3, r3
  99 004e 03F4E063 		and	r3, r3, #1792
 100 0052 4FEA1323 		lsr	r3, r3, #8
 101 0056 FB73     		strb	r3, [r7, #15]
 143:../Libraries/STM32F4xx_StdPeriph_Driver/src/misc.c ****     tmppre = (0x4 - tmppriority);
 102              		.loc 1 143 0
 103 0058 FB7B     		ldrb	r3, [r7, #15]
 104 005a C3F10403 		rsb	r3, r3, #4
 105 005e BB73     		strb	r3, [r7, #14]
 144:../Libraries/STM32F4xx_StdPeriph_Driver/src/misc.c ****     tmpsub = tmpsub >> tmppriority;
 106              		.loc 1 144 0
 107 0060 7A7B     		ldrb	r2, [r7, #13]	@ zero_extendqisi2
 108 0062 FB7B     		ldrb	r3, [r7, #15]	@ zero_extendqisi2
 109 0064 42FA03F3 		asr	r3, r2, r3
 110 0068 7B73     		strb	r3, [r7, #13]
 145:../Libraries/STM32F4xx_StdPeriph_Driver/src/misc.c **** 
 146:../Libraries/STM32F4xx_StdPeriph_Driver/src/misc.c ****     tmppriority = NVIC_InitStruct->NVIC_IRQChannelPreemptionPriority << tmppre;
 111              		.loc 1 146 0
 112 006a 7B68     		ldr	r3, [r7, #4]
 113 006c 5B78     		ldrb	r3, [r3, #1]	@ zero_extendqisi2
 114 006e 1A46     		mov	r2, r3
 115 0070 BB7B     		ldrb	r3, [r7, #14]	@ zero_extendqisi2
 116 0072 02FA03F3 		lsl	r3, r2, r3
 117 0076 FB73     		strb	r3, [r7, #15]
 147:../Libraries/STM32F4xx_StdPeriph_Driver/src/misc.c ****     tmppriority |=  (uint8_t)(NVIC_InitStruct->NVIC_IRQChannelSubPriority & tmpsub);
 118              		.loc 1 147 0
 119 0078 7B68     		ldr	r3, [r7, #4]
 120 007a 9A78     		ldrb	r2, [r3, #2]	@ zero_extendqisi2
 121 007c 7B7B     		ldrb	r3, [r7, #13]
 122 007e 1340     		ands	r3, r3, r2
 123 0080 DAB2     		uxtb	r2, r3
 124 0082 FB7B     		ldrb	r3, [r7, #15]
 125 0084 1343     		orrs	r3, r3, r2
 126 0086 FB73     		strb	r3, [r7, #15]
 148:../Libraries/STM32F4xx_StdPeriph_Driver/src/misc.c ****         
 149:../Libraries/STM32F4xx_StdPeriph_Driver/src/misc.c ****     tmppriority = tmppriority << 0x04;
 127              		.loc 1 149 0
 128 0088 FB7B     		ldrb	r3, [r7, #15]
 129 008a 4FEA0313 		lsl	r3, r3, #4
 130 008e FB73     		strb	r3, [r7, #15]
 150:../Libraries/STM32F4xx_StdPeriph_Driver/src/misc.c ****         
 151:../Libraries/STM32F4xx_StdPeriph_Driver/src/misc.c ****     NVIC->IP[NVIC_InitStruct->NVIC_IRQChannel] = tmppriority;
 131              		.loc 1 151 0
 132 0090 184A     		ldr	r2, .L7+4
 133 0092 7B68     		ldr	r3, [r7, #4]
 134 0094 1B78     		ldrb	r3, [r3, #0]	@ zero_extendqisi2
 135 0096 D318     		adds	r3, r2, r3
 136 0098 FA7B     		ldrb	r2, [r7, #15]
 137 009a 83F80023 		strb	r2, [r3, #768]
 152:../Libraries/STM32F4xx_StdPeriph_Driver/src/misc.c ****     
 153:../Libraries/STM32F4xx_StdPeriph_Driver/src/misc.c ****     /* Enable the Selected IRQ Channels --------------------------------------*/
 154:../Libraries/STM32F4xx_StdPeriph_Driver/src/misc.c ****     NVIC->ISER[NVIC_InitStruct->NVIC_IRQChannel >> 0x05] =
 138              		.loc 1 154 0
 139 009e 154B     		ldr	r3, .L7+4
 140 00a0 7A68     		ldr	r2, [r7, #4]
 141 00a2 1278     		ldrb	r2, [r2, #0]	@ zero_extendqisi2
 142 00a4 4FEA5212 		lsr	r2, r2, #5
 143 00a8 D2B2     		uxtb	r2, r2
 155:../Libraries/STM32F4xx_StdPeriph_Driver/src/misc.c ****       (uint32_t)0x01 << (NVIC_InitStruct->NVIC_IRQChannel & (uint8_t)0x1F);
 144              		.loc 1 155 0
 145 00aa 7968     		ldr	r1, [r7, #4]
 146 00ac 0978     		ldrb	r1, [r1, #0]	@ zero_extendqisi2
 147 00ae 01F01F01 		and	r1, r1, #31
 148 00b2 4FF00100 		mov	r0, #1
 149 00b6 00FA01F1 		lsl	r1, r0, r1
 154:../Libraries/STM32F4xx_StdPeriph_Driver/src/misc.c ****     NVIC->ISER[NVIC_InitStruct->NVIC_IRQChannel >> 0x05] =
 150              		.loc 1 154 0
 151 00ba 43F82210 		str	r1, [r3, r2, lsl #2]
 152 00be 11E0     		b	.L4
 153              	.L5:
 156:../Libraries/STM32F4xx_StdPeriph_Driver/src/misc.c ****   }
 157:../Libraries/STM32F4xx_StdPeriph_Driver/src/misc.c ****   else
 158:../Libraries/STM32F4xx_StdPeriph_Driver/src/misc.c ****   {
 159:../Libraries/STM32F4xx_StdPeriph_Driver/src/misc.c ****     /* Disable the Selected IRQ Channels -------------------------------------*/
 160:../Libraries/STM32F4xx_StdPeriph_Driver/src/misc.c ****     NVIC->ICER[NVIC_InitStruct->NVIC_IRQChannel >> 0x05] =
 154              		.loc 1 160 0
 155 00c0 0C4B     		ldr	r3, .L7+4
 156 00c2 7A68     		ldr	r2, [r7, #4]
 157 00c4 1278     		ldrb	r2, [r2, #0]	@ zero_extendqisi2
 158 00c6 4FEA5212 		lsr	r2, r2, #5
 159 00ca D2B2     		uxtb	r2, r2
 161:../Libraries/STM32F4xx_StdPeriph_Driver/src/misc.c ****       (uint32_t)0x01 << (NVIC_InitStruct->NVIC_IRQChannel & (uint8_t)0x1F);
 160              		.loc 1 161 0
 161 00cc 7968     		ldr	r1, [r7, #4]
 162 00ce 0978     		ldrb	r1, [r1, #0]	@ zero_extendqisi2
 163 00d0 01F01F01 		and	r1, r1, #31
 164 00d4 4FF00100 		mov	r0, #1
 165 00d8 00FA01F1 		lsl	r1, r0, r1
 160:../Libraries/STM32F4xx_StdPeriph_Driver/src/misc.c ****     NVIC->ICER[NVIC_InitStruct->NVIC_IRQChannel >> 0x05] =
 166              		.loc 1 160 0
 167 00dc 02F12002 		add	r2, r2, #32
 168 00e0 43F82210 		str	r1, [r3, r2, lsl #2]
 169              	.L4:
 162:../Libraries/STM32F4xx_StdPeriph_Driver/src/misc.c ****   }
 163:../Libraries/STM32F4xx_StdPeriph_Driver/src/misc.c **** }
 170              		.loc 1 163 0
 171 00e4 07F11407 		add	r7, r7, #20
 172 00e8 BD46     		mov	sp, r7
 173 00ea 80BC     		pop	{r7}
 174 00ec 7047     		bx	lr
 175              	.L8:
 176 00ee 00BF     		.align	2
 177              	.L7:
 178 00f0 00ED00E0 		.word	-536810240
 179 00f4 00E100E0 		.word	-536813312
 180              		.cfi_endproc
 181              	.LFE111:
 183              		.align	2
 184              		.global	NVIC_SetVectorTable
 185              		.thumb
 186              		.thumb_func
 188              	NVIC_SetVectorTable:
 189              	.LFB112:
 164:../Libraries/STM32F4xx_StdPeriph_Driver/src/misc.c **** 
 165:../Libraries/STM32F4xx_StdPeriph_Driver/src/misc.c **** /**
 166:../Libraries/STM32F4xx_StdPeriph_Driver/src/misc.c ****   * @brief  Sets the vector table location and Offset.
 167:../Libraries/STM32F4xx_StdPeriph_Driver/src/misc.c ****   * @param  NVIC_VectTab: specifies if the vector table is in RAM or FLASH memory.
 168:../Libraries/STM32F4xx_StdPeriph_Driver/src/misc.c ****   *   This parameter can be one of the following values:
 169:../Libraries/STM32F4xx_StdPeriph_Driver/src/misc.c ****   *     @arg NVIC_VectTab_RAM: Vector Table in internal SRAM.
 170:../Libraries/STM32F4xx_StdPeriph_Driver/src/misc.c ****   *     @arg NVIC_VectTab_FLASH: Vector Table in internal FLASH.
 171:../Libraries/STM32F4xx_StdPeriph_Driver/src/misc.c ****   * @param  Offset: Vector Table base offset field. This value must be a multiple of 0x200.
 172:../Libraries/STM32F4xx_StdPeriph_Driver/src/misc.c ****   * @retval None
 173:../Libraries/STM32F4xx_StdPeriph_Driver/src/misc.c ****   */
 174:../Libraries/STM32F4xx_StdPeriph_Driver/src/misc.c **** void NVIC_SetVectorTable(uint32_t NVIC_VectTab, uint32_t Offset)
 175:../Libraries/STM32F4xx_StdPeriph_Driver/src/misc.c **** { 
 190              		.loc 1 175 0
 191              		.cfi_startproc
 192              		@ args = 0, pretend = 0, frame = 8
 193              		@ frame_needed = 1, uses_anonymous_args = 0
 194              		@ link register save eliminated.
 195 00f8 80B4     		push	{r7}
 196              	.LCFI6:
 197              		.cfi_def_cfa_offset 4
 198              		.cfi_offset 7, -4
 199 00fa 83B0     		sub	sp, sp, #12
 200              	.LCFI7:
 201              		.cfi_def_cfa_offset 16
 202 00fc 00AF     		add	r7, sp, #0
 203              	.LCFI8:
 204              		.cfi_def_cfa_register 7
 205 00fe 7860     		str	r0, [r7, #4]
 206 0100 3960     		str	r1, [r7, #0]
 176:../Libraries/STM32F4xx_StdPeriph_Driver/src/misc.c ****   /* Check the parameters */
 177:../Libraries/STM32F4xx_StdPeriph_Driver/src/misc.c ****   assert_param(IS_NVIC_VECTTAB(NVIC_VectTab));
 178:../Libraries/STM32F4xx_StdPeriph_Driver/src/misc.c ****   assert_param(IS_NVIC_OFFSET(Offset));  
 179:../Libraries/STM32F4xx_StdPeriph_Driver/src/misc.c ****    
 180:../Libraries/STM32F4xx_StdPeriph_Driver/src/misc.c ****   SCB->VTOR = NVIC_VectTab | (Offset & (uint32_t)0x1FFFFF80);
 207              		.loc 1 180 0
 208 0102 074A     		ldr	r2, .L10
 209 0104 3B68     		ldr	r3, [r7, #0]
 210 0106 23F06043 		bic	r3, r3, #-536870912
 211 010a 23F07F03 		bic	r3, r3, #127
 212 010e 7968     		ldr	r1, [r7, #4]
 213 0110 0B43     		orrs	r3, r3, r1
 214 0112 9360     		str	r3, [r2, #8]
 181:../Libraries/STM32F4xx_StdPeriph_Driver/src/misc.c **** }
 215              		.loc 1 181 0
 216 0114 07F10C07 		add	r7, r7, #12
 217 0118 BD46     		mov	sp, r7
 218 011a 80BC     		pop	{r7}
 219 011c 7047     		bx	lr
 220              	.L11:
 221 011e 00BF     		.align	2
 222              	.L10:
 223 0120 00ED00E0 		.word	-536810240
 224              		.cfi_endproc
 225              	.LFE112:
 227              		.align	2
 228              		.global	NVIC_SystemLPConfig
 229              		.thumb
 230              		.thumb_func
 232              	NVIC_SystemLPConfig:
 233              	.LFB113:
 182:../Libraries/STM32F4xx_StdPeriph_Driver/src/misc.c **** 
 183:../Libraries/STM32F4xx_StdPeriph_Driver/src/misc.c **** /**
 184:../Libraries/STM32F4xx_StdPeriph_Driver/src/misc.c ****   * @brief  Selects the condition for the system to enter low power mode.
 185:../Libraries/STM32F4xx_StdPeriph_Driver/src/misc.c ****   * @param  LowPowerMode: Specifies the new mode for the system to enter low power mode.
 186:../Libraries/STM32F4xx_StdPeriph_Driver/src/misc.c ****   *   This parameter can be one of the following values:
 187:../Libraries/STM32F4xx_StdPeriph_Driver/src/misc.c ****   *     @arg NVIC_LP_SEVONPEND: Low Power SEV on Pend.
 188:../Libraries/STM32F4xx_StdPeriph_Driver/src/misc.c ****   *     @arg NVIC_LP_SLEEPDEEP: Low Power DEEPSLEEP request.
 189:../Libraries/STM32F4xx_StdPeriph_Driver/src/misc.c ****   *     @arg NVIC_LP_SLEEPONEXIT: Low Power Sleep on Exit.
 190:../Libraries/STM32F4xx_StdPeriph_Driver/src/misc.c ****   * @param  NewState: new state of LP condition. This parameter can be: ENABLE or DISABLE.
 191:../Libraries/STM32F4xx_StdPeriph_Driver/src/misc.c ****   * @retval None
 192:../Libraries/STM32F4xx_StdPeriph_Driver/src/misc.c ****   */
 193:../Libraries/STM32F4xx_StdPeriph_Driver/src/misc.c **** void NVIC_SystemLPConfig(uint8_t LowPowerMode, FunctionalState NewState)
 194:../Libraries/STM32F4xx_StdPeriph_Driver/src/misc.c **** {
 234              		.loc 1 194 0
 235              		.cfi_startproc
 236              		@ args = 0, pretend = 0, frame = 8
 237              		@ frame_needed = 1, uses_anonymous_args = 0
 238              		@ link register save eliminated.
 239 0124 80B4     		push	{r7}
 240              	.LCFI9:
 241              		.cfi_def_cfa_offset 4
 242              		.cfi_offset 7, -4
 243 0126 83B0     		sub	sp, sp, #12
 244              	.LCFI10:
 245              		.cfi_def_cfa_offset 16
 246 0128 00AF     		add	r7, sp, #0
 247              	.LCFI11:
 248              		.cfi_def_cfa_register 7
 249 012a 0246     		mov	r2, r0
 250 012c 0B46     		mov	r3, r1
 251 012e FA71     		strb	r2, [r7, #7]
 252 0130 BB71     		strb	r3, [r7, #6]
 195:../Libraries/STM32F4xx_StdPeriph_Driver/src/misc.c ****   /* Check the parameters */
 196:../Libraries/STM32F4xx_StdPeriph_Driver/src/misc.c ****   assert_param(IS_NVIC_LP(LowPowerMode));
 197:../Libraries/STM32F4xx_StdPeriph_Driver/src/misc.c ****   assert_param(IS_FUNCTIONAL_STATE(NewState));  
 198:../Libraries/STM32F4xx_StdPeriph_Driver/src/misc.c ****   
 199:../Libraries/STM32F4xx_StdPeriph_Driver/src/misc.c ****   if (NewState != DISABLE)
 253              		.loc 1 199 0
 254 0132 BB79     		ldrb	r3, [r7, #6]	@ zero_extendqisi2
 255 0134 002B     		cmp	r3, #0
 256 0136 06D0     		beq	.L13
 200:../Libraries/STM32F4xx_StdPeriph_Driver/src/misc.c ****   {
 201:../Libraries/STM32F4xx_StdPeriph_Driver/src/misc.c ****     SCB->SCR |= LowPowerMode;
 257              		.loc 1 201 0
 258 0138 094B     		ldr	r3, .L15
 259 013a 094A     		ldr	r2, .L15
 260 013c 1169     		ldr	r1, [r2, #16]
 261 013e FA79     		ldrb	r2, [r7, #7]	@ zero_extendqisi2
 262 0140 0A43     		orrs	r2, r2, r1
 263 0142 1A61     		str	r2, [r3, #16]
 264 0144 07E0     		b	.L12
 265              	.L13:
 202:../Libraries/STM32F4xx_StdPeriph_Driver/src/misc.c ****   }
 203:../Libraries/STM32F4xx_StdPeriph_Driver/src/misc.c ****   else
 204:../Libraries/STM32F4xx_StdPeriph_Driver/src/misc.c ****   {
 205:../Libraries/STM32F4xx_StdPeriph_Driver/src/misc.c ****     SCB->SCR &= (uint32_t)(~(uint32_t)LowPowerMode);
 266              		.loc 1 205 0
 267 0146 064B     		ldr	r3, .L15
 268 0148 054A     		ldr	r2, .L15
 269 014a 1169     		ldr	r1, [r2, #16]
 270 014c FA79     		ldrb	r2, [r7, #7]	@ zero_extendqisi2
 271 014e 6FEA0202 		mvn	r2, r2
 272 0152 0A40     		ands	r2, r2, r1
 273 0154 1A61     		str	r2, [r3, #16]
 274              	.L12:
 206:../Libraries/STM32F4xx_StdPeriph_Driver/src/misc.c ****   }
 207:../Libraries/STM32F4xx_StdPeriph_Driver/src/misc.c **** }
 275              		.loc 1 207 0
 276 0156 07F10C07 		add	r7, r7, #12
 277 015a BD46     		mov	sp, r7
 278 015c 80BC     		pop	{r7}
 279 015e 7047     		bx	lr
 280              	.L16:
 281              		.align	2
 282              	.L15:
 283 0160 00ED00E0 		.word	-536810240
 284              		.cfi_endproc
 285              	.LFE113:
 287              		.align	2
 288              		.global	SysTick_CLKSourceConfig
 289              		.thumb
 290              		.thumb_func
 292              	SysTick_CLKSourceConfig:
 293              	.LFB114:
 208:../Libraries/STM32F4xx_StdPeriph_Driver/src/misc.c **** 
 209:../Libraries/STM32F4xx_StdPeriph_Driver/src/misc.c **** /**
 210:../Libraries/STM32F4xx_StdPeriph_Driver/src/misc.c ****   * @brief  Configures the SysTick clock source.
 211:../Libraries/STM32F4xx_StdPeriph_Driver/src/misc.c ****   * @param  SysTick_CLKSource: specifies the SysTick clock source.
 212:../Libraries/STM32F4xx_StdPeriph_Driver/src/misc.c ****   *   This parameter can be one of the following values:
 213:../Libraries/STM32F4xx_StdPeriph_Driver/src/misc.c ****   *     @arg SysTick_CLKSource_HCLK_Div8: AHB clock divided by 8 selected as SysTick clock source.
 214:../Libraries/STM32F4xx_StdPeriph_Driver/src/misc.c ****   *     @arg SysTick_CLKSource_HCLK: AHB clock selected as SysTick clock source.
 215:../Libraries/STM32F4xx_StdPeriph_Driver/src/misc.c ****   * @retval None
 216:../Libraries/STM32F4xx_StdPeriph_Driver/src/misc.c ****   */
 217:../Libraries/STM32F4xx_StdPeriph_Driver/src/misc.c **** void SysTick_CLKSourceConfig(uint32_t SysTick_CLKSource)
 218:../Libraries/STM32F4xx_StdPeriph_Driver/src/misc.c **** {
 294              		.loc 1 218 0
 295              		.cfi_startproc
 296              		@ args = 0, pretend = 0, frame = 8
 297              		@ frame_needed = 1, uses_anonymous_args = 0
 298              		@ link register save eliminated.
 299 0164 80B4     		push	{r7}
 300              	.LCFI12:
 301              		.cfi_def_cfa_offset 4
 302              		.cfi_offset 7, -4
 303 0166 83B0     		sub	sp, sp, #12
 304              	.LCFI13:
 305              		.cfi_def_cfa_offset 16
 306 0168 00AF     		add	r7, sp, #0
 307              	.LCFI14:
 308              		.cfi_def_cfa_register 7
 309 016a 7860     		str	r0, [r7, #4]
 219:../Libraries/STM32F4xx_StdPeriph_Driver/src/misc.c ****   /* Check the parameters */
 220:../Libraries/STM32F4xx_StdPeriph_Driver/src/misc.c ****   assert_param(IS_SYSTICK_CLK_SOURCE(SysTick_CLKSource));
 221:../Libraries/STM32F4xx_StdPeriph_Driver/src/misc.c ****   if (SysTick_CLKSource == SysTick_CLKSource_HCLK)
 310              		.loc 1 221 0
 311 016c 7B68     		ldr	r3, [r7, #4]
 312 016e 042B     		cmp	r3, #4
 313 0170 06D1     		bne	.L18
 222:../Libraries/STM32F4xx_StdPeriph_Driver/src/misc.c ****   {
 223:../Libraries/STM32F4xx_StdPeriph_Driver/src/misc.c ****     SysTick->CTRL |= SysTick_CLKSource_HCLK;
 314              		.loc 1 223 0
 315 0172 094B     		ldr	r3, .L20
 316 0174 084A     		ldr	r2, .L20
 317 0176 1268     		ldr	r2, [r2, #0]
 318 0178 42F00402 		orr	r2, r2, #4
 319 017c 1A60     		str	r2, [r3, #0]
 320 017e 05E0     		b	.L17
 321              	.L18:
 224:../Libraries/STM32F4xx_StdPeriph_Driver/src/misc.c ****   }
 225:../Libraries/STM32F4xx_StdPeriph_Driver/src/misc.c ****   else
 226:../Libraries/STM32F4xx_StdPeriph_Driver/src/misc.c ****   {
 227:../Libraries/STM32F4xx_StdPeriph_Driver/src/misc.c ****     SysTick->CTRL &= SysTick_CLKSource_HCLK_Div8;
 322              		.loc 1 227 0
 323 0180 054B     		ldr	r3, .L20
 324 0182 054A     		ldr	r2, .L20
 325 0184 1268     		ldr	r2, [r2, #0]
 326 0186 22F00402 		bic	r2, r2, #4
 327 018a 1A60     		str	r2, [r3, #0]
 328              	.L17:
 228:../Libraries/STM32F4xx_StdPeriph_Driver/src/misc.c ****   }
 229:../Libraries/STM32F4xx_StdPeriph_Driver/src/misc.c **** }
 329              		.loc 1 229 0
 330 018c 07F10C07 		add	r7, r7, #12
 331 0190 BD46     		mov	sp, r7
 332 0192 80BC     		pop	{r7}
 333 0194 7047     		bx	lr
 334              	.L21:
 335 0196 00BF     		.align	2
 336              	.L20:
 337 0198 10E000E0 		.word	-536813552
 338              		.cfi_endproc
 339              	.LFE114:
 341              	.Letext0:
 342              		.file 2 "c:\\program files (x86)\\codesourcery\\sourcery_codebench_lite_for_arm_eabi\\bin\\../lib/
 343              		.file 3 "C:\\Users\\Gergo\\workspace\\estevan\\Libraries\\CMSIS\\Include/core_cm4.h"
 344              		.file 4 "C:\\Users\\Gergo\\workspace\\estevan\\Libraries\\Device\\STM32F4xx\\Include/stm32f4xx.h"
 345              		.file 5 "C:\\Users\\Gergo\\workspace\\estevan\\Libraries\\STM32F4xx_StdPeriph_Driver\\inc/misc.h"