   1              		.syntax unified
   2              		.cpu cortex-m4
   3              		.fpu softvfp
   4              		.eabi_attribute 20, 1
   5              		.eabi_attribute 21, 1
   6              		.eabi_attribute 23, 3
   7              		.eabi_attribute 24, 1
   8              		.eabi_attribute 25, 1
   9              		.eabi_attribute 26, 1
  10              		.eabi_attribute 30, 6
  11              		.eabi_attribute 34, 1
  12              		.eabi_attribute 18, 4
  13              		.thumb
  14              		.file	"stm32f4xx_rtc.c"
  15              		.text
  16              	.Ltext0:
  17              		.cfi_sections	.debug_frame
  18              		.align	2
  19              		.global	RTC_DeInit
  20              		.thumb
  21              		.thumb_func
  23              	RTC_DeInit:
  24              	.LFB110:
  25              		.file 1 "../Libraries/STM32F4xx_StdPeriph_Driver/src/stm32f4xx_rtc.c"
   1:../Libraries/STM32F4xx_StdPeriph_Driver/src/stm32f4xx_rtc.c **** /**
   2:../Libraries/STM32F4xx_StdPeriph_Driver/src/stm32f4xx_rtc.c ****   ******************************************************************************
   3:../Libraries/STM32F4xx_StdPeriph_Driver/src/stm32f4xx_rtc.c ****   * @file    stm32f4xx_rtc.c
   4:../Libraries/STM32F4xx_StdPeriph_Driver/src/stm32f4xx_rtc.c ****   * @author  MCD Application Team
   5:../Libraries/STM32F4xx_StdPeriph_Driver/src/stm32f4xx_rtc.c ****   * @version V1.0.0
   6:../Libraries/STM32F4xx_StdPeriph_Driver/src/stm32f4xx_rtc.c ****   * @date    30-September-2011
   7:../Libraries/STM32F4xx_StdPeriph_Driver/src/stm32f4xx_rtc.c ****   * @brief   This file provides firmware functions to manage the following 
   8:../Libraries/STM32F4xx_StdPeriph_Driver/src/stm32f4xx_rtc.c ****   *          functionalities of the Real-Time Clock (RTC) peripheral:
   9:../Libraries/STM32F4xx_StdPeriph_Driver/src/stm32f4xx_rtc.c ****   *           - Initialization
  10:../Libraries/STM32F4xx_StdPeriph_Driver/src/stm32f4xx_rtc.c ****   *           - Calendar (Time and Date) configuration
  11:../Libraries/STM32F4xx_StdPeriph_Driver/src/stm32f4xx_rtc.c ****   *           - Alarms (Alarm A and Alarm B) configuration
  12:../Libraries/STM32F4xx_StdPeriph_Driver/src/stm32f4xx_rtc.c ****   *           - WakeUp Timer configuration
  13:../Libraries/STM32F4xx_StdPeriph_Driver/src/stm32f4xx_rtc.c ****   *           - Daylight Saving configuration
  14:../Libraries/STM32F4xx_StdPeriph_Driver/src/stm32f4xx_rtc.c ****   *           - Output pin Configuration
  15:../Libraries/STM32F4xx_StdPeriph_Driver/src/stm32f4xx_rtc.c ****   *           - Coarse digital Calibration configuration
  16:../Libraries/STM32F4xx_StdPeriph_Driver/src/stm32f4xx_rtc.c ****   *           - Smooth digital Calibration configuration
  17:../Libraries/STM32F4xx_StdPeriph_Driver/src/stm32f4xx_rtc.c ****   *           - TimeStamp configuration
  18:../Libraries/STM32F4xx_StdPeriph_Driver/src/stm32f4xx_rtc.c ****   *           - Tampers configuration
  19:../Libraries/STM32F4xx_StdPeriph_Driver/src/stm32f4xx_rtc.c ****   *           - Backup Data Registers configuration
  20:../Libraries/STM32F4xx_StdPeriph_Driver/src/stm32f4xx_rtc.c ****   *           - Shift control synchronisation    
  21:../Libraries/STM32F4xx_StdPeriph_Driver/src/stm32f4xx_rtc.c ****   *           - RTC Tamper and TimeStamp Pins Selection and Output Type Config configuration
  22:../Libraries/STM32F4xx_StdPeriph_Driver/src/stm32f4xx_rtc.c ****   *           - Interrupts and flags management
  23:../Libraries/STM32F4xx_StdPeriph_Driver/src/stm32f4xx_rtc.c ****   *
  24:../Libraries/STM32F4xx_StdPeriph_Driver/src/stm32f4xx_rtc.c ****   *  @verbatim
  25:../Libraries/STM32F4xx_StdPeriph_Driver/src/stm32f4xx_rtc.c ****   *
  26:../Libraries/STM32F4xx_StdPeriph_Driver/src/stm32f4xx_rtc.c ****   *          ===================================================================
  27:../Libraries/STM32F4xx_StdPeriph_Driver/src/stm32f4xx_rtc.c ****   *                               Backup Domain Operating Condition
  28:../Libraries/STM32F4xx_StdPeriph_Driver/src/stm32f4xx_rtc.c ****   *          ===================================================================
  29:../Libraries/STM32F4xx_StdPeriph_Driver/src/stm32f4xx_rtc.c ****   *          The real-time clock (RTC), the RTC backup registers, and the backup 
  30:../Libraries/STM32F4xx_StdPeriph_Driver/src/stm32f4xx_rtc.c ****   *          SRAM (BKP SRAM) can be powered from the VBAT voltage when the main 
  31:../Libraries/STM32F4xx_StdPeriph_Driver/src/stm32f4xx_rtc.c ****   *          VDD supply is powered off.
  32:../Libraries/STM32F4xx_StdPeriph_Driver/src/stm32f4xx_rtc.c ****   *          To retain the content of the RTC backup registers, backup SRAM, 
  33:../Libraries/STM32F4xx_StdPeriph_Driver/src/stm32f4xx_rtc.c ****   *          and supply the RTC when VDD is turned off, VBAT pin can be connected 
  34:../Libraries/STM32F4xx_StdPeriph_Driver/src/stm32f4xx_rtc.c ****   *          to an optional standby voltage supplied by a battery or by another 
  35:../Libraries/STM32F4xx_StdPeriph_Driver/src/stm32f4xx_rtc.c ****   *          source.
  36:../Libraries/STM32F4xx_StdPeriph_Driver/src/stm32f4xx_rtc.c ****   *
  37:../Libraries/STM32F4xx_StdPeriph_Driver/src/stm32f4xx_rtc.c ****   *          To allow the RTC to operate even when the main digital supply (VDD) 
  38:../Libraries/STM32F4xx_StdPeriph_Driver/src/stm32f4xx_rtc.c ****   *          is turned off, the VBAT pin powers the following blocks:
  39:../Libraries/STM32F4xx_StdPeriph_Driver/src/stm32f4xx_rtc.c ****   *            1 - The RTC
  40:../Libraries/STM32F4xx_StdPeriph_Driver/src/stm32f4xx_rtc.c ****   *            2 - The LSE oscillator
  41:../Libraries/STM32F4xx_StdPeriph_Driver/src/stm32f4xx_rtc.c ****   *            3 - The backup SRAM when the low power backup regulator is enabled
  42:../Libraries/STM32F4xx_StdPeriph_Driver/src/stm32f4xx_rtc.c ****   *            4 - PC13 to PC15 I/Os, plus PI8 I/O (when available)
  43:../Libraries/STM32F4xx_StdPeriph_Driver/src/stm32f4xx_rtc.c ****   *
  44:../Libraries/STM32F4xx_StdPeriph_Driver/src/stm32f4xx_rtc.c ****   *          When the backup domain is supplied by VDD (analog switch connected 
  45:../Libraries/STM32F4xx_StdPeriph_Driver/src/stm32f4xx_rtc.c ****   *          to VDD), the following functions are available:
  46:../Libraries/STM32F4xx_StdPeriph_Driver/src/stm32f4xx_rtc.c ****   *            1 - PC14 and PC15 can be used as either GPIO or LSE pins
  47:../Libraries/STM32F4xx_StdPeriph_Driver/src/stm32f4xx_rtc.c ****   *            2 - PC13 can be used as a GPIO or as the RTC_AF1 pin
  48:../Libraries/STM32F4xx_StdPeriph_Driver/src/stm32f4xx_rtc.c ****   *            3 - PI8 can be used as a GPIO or as the RTC_AF2 pin
  49:../Libraries/STM32F4xx_StdPeriph_Driver/src/stm32f4xx_rtc.c ****   *
  50:../Libraries/STM32F4xx_StdPeriph_Driver/src/stm32f4xx_rtc.c ****   *          When the backup domain is supplied by VBAT (analog switch connected 
  51:../Libraries/STM32F4xx_StdPeriph_Driver/src/stm32f4xx_rtc.c ****   *          to VBAT because VDD is not present), the following functions are available:
  52:../Libraries/STM32F4xx_StdPeriph_Driver/src/stm32f4xx_rtc.c ****   *            1 - PC14 and PC15 can be used as LSE pins only
  53:../Libraries/STM32F4xx_StdPeriph_Driver/src/stm32f4xx_rtc.c ****   *            2 - PC13 can be used as the RTC_AF1 pin 
  54:../Libraries/STM32F4xx_StdPeriph_Driver/src/stm32f4xx_rtc.c ****   *            3 - PI8 can be used as the RTC_AF2 pin
  55:../Libraries/STM32F4xx_StdPeriph_Driver/src/stm32f4xx_rtc.c ****   *
  56:../Libraries/STM32F4xx_StdPeriph_Driver/src/stm32f4xx_rtc.c ****   *          ===================================================================
  57:../Libraries/STM32F4xx_StdPeriph_Driver/src/stm32f4xx_rtc.c ****   *                                    Backup Domain Reset
  58:../Libraries/STM32F4xx_StdPeriph_Driver/src/stm32f4xx_rtc.c ****   *          ===================================================================
  59:../Libraries/STM32F4xx_StdPeriph_Driver/src/stm32f4xx_rtc.c ****   *          The backup domain reset sets all RTC registers and the RCC_BDCR 
  60:../Libraries/STM32F4xx_StdPeriph_Driver/src/stm32f4xx_rtc.c ****   *          register to their reset values. The BKPSRAM is not affected by this
  61:../Libraries/STM32F4xx_StdPeriph_Driver/src/stm32f4xx_rtc.c ****   *          reset. The only way of resetting the BKPSRAM is through the Flash 
  62:../Libraries/STM32F4xx_StdPeriph_Driver/src/stm32f4xx_rtc.c ****   *          interface by requesting a protection level change from 1 to 0.
  63:../Libraries/STM32F4xx_StdPeriph_Driver/src/stm32f4xx_rtc.c ****   *          A backup domain reset is generated when one of the following events
  64:../Libraries/STM32F4xx_StdPeriph_Driver/src/stm32f4xx_rtc.c ****   *          occurs:
  65:../Libraries/STM32F4xx_StdPeriph_Driver/src/stm32f4xx_rtc.c ****   *            1 - Software reset, triggered by setting the BDRST bit in the 
  66:../Libraries/STM32F4xx_StdPeriph_Driver/src/stm32f4xx_rtc.c ****   *                RCC Backup domain control register (RCC_BDCR). You can use the
  67:../Libraries/STM32F4xx_StdPeriph_Driver/src/stm32f4xx_rtc.c ****   *                RCC_BackupResetCmd().
  68:../Libraries/STM32F4xx_StdPeriph_Driver/src/stm32f4xx_rtc.c ****   *            2 - VDD or VBAT power on, if both supplies have previously been
  69:../Libraries/STM32F4xx_StdPeriph_Driver/src/stm32f4xx_rtc.c ****   *                powered off.
  70:../Libraries/STM32F4xx_StdPeriph_Driver/src/stm32f4xx_rtc.c ****   *
  71:../Libraries/STM32F4xx_StdPeriph_Driver/src/stm32f4xx_rtc.c ****   *          ===================================================================
  72:../Libraries/STM32F4xx_StdPeriph_Driver/src/stm32f4xx_rtc.c ****   *                                   Backup Domain Access
  73:../Libraries/STM32F4xx_StdPeriph_Driver/src/stm32f4xx_rtc.c ****   *          ===================================================================
  74:../Libraries/STM32F4xx_StdPeriph_Driver/src/stm32f4xx_rtc.c ****   *          After reset, the backup domain (RTC registers, RTC backup data 
  75:../Libraries/STM32F4xx_StdPeriph_Driver/src/stm32f4xx_rtc.c ****   *          registers and backup SRAM) is protected against possible unwanted 
  76:../Libraries/STM32F4xx_StdPeriph_Driver/src/stm32f4xx_rtc.c ****   *          write accesses. 
  77:../Libraries/STM32F4xx_StdPeriph_Driver/src/stm32f4xx_rtc.c ****   *          To enable access to the RTC Domain and RTC registers, proceed as follows:
  78:../Libraries/STM32F4xx_StdPeriph_Driver/src/stm32f4xx_rtc.c ****   *            - Enable the Power Controller (PWR) APB1 interface clock using the
  79:../Libraries/STM32F4xx_StdPeriph_Driver/src/stm32f4xx_rtc.c ****   *              RCC_APB1PeriphClockCmd() function.
  80:../Libraries/STM32F4xx_StdPeriph_Driver/src/stm32f4xx_rtc.c ****   *            - Enable access to RTC domain using the PWR_BackupAccessCmd() function.
  81:../Libraries/STM32F4xx_StdPeriph_Driver/src/stm32f4xx_rtc.c ****   *            - Select the RTC clock source using the RCC_RTCCLKConfig() function.
  82:../Libraries/STM32F4xx_StdPeriph_Driver/src/stm32f4xx_rtc.c ****   *            - Enable RTC Clock using the RCC_RTCCLKCmd() function.
  83:../Libraries/STM32F4xx_StdPeriph_Driver/src/stm32f4xx_rtc.c ****   *
  84:../Libraries/STM32F4xx_StdPeriph_Driver/src/stm32f4xx_rtc.c ****   *          ===================================================================
  85:../Libraries/STM32F4xx_StdPeriph_Driver/src/stm32f4xx_rtc.c ****   *                                   RTC Driver: how to use it
  86:../Libraries/STM32F4xx_StdPeriph_Driver/src/stm32f4xx_rtc.c ****   *          ===================================================================
  87:../Libraries/STM32F4xx_StdPeriph_Driver/src/stm32f4xx_rtc.c ****   *            - Enable the RTC domain access (see description in the section above)
  88:../Libraries/STM32F4xx_StdPeriph_Driver/src/stm32f4xx_rtc.c ****   *            - Configure the RTC Prescaler (Asynchronous and Synchronous) and
  89:../Libraries/STM32F4xx_StdPeriph_Driver/src/stm32f4xx_rtc.c ****   *              RTC hour format using the RTC_Init() function.
  90:../Libraries/STM32F4xx_StdPeriph_Driver/src/stm32f4xx_rtc.c ****   *
  91:../Libraries/STM32F4xx_StdPeriph_Driver/src/stm32f4xx_rtc.c ****   *          Time and Date configuration
  92:../Libraries/STM32F4xx_StdPeriph_Driver/src/stm32f4xx_rtc.c ****   *          ===========================
  93:../Libraries/STM32F4xx_StdPeriph_Driver/src/stm32f4xx_rtc.c ****   *            - To configure the RTC Calendar (Time and Date) use the RTC_SetTime()
  94:../Libraries/STM32F4xx_StdPeriph_Driver/src/stm32f4xx_rtc.c ****   *              and RTC_SetDate() functions.
  95:../Libraries/STM32F4xx_StdPeriph_Driver/src/stm32f4xx_rtc.c ****   *            - To read the RTC Calendar, use the RTC_GetTime() and RTC_GetDate()
  96:../Libraries/STM32F4xx_StdPeriph_Driver/src/stm32f4xx_rtc.c ****   *              functions.
  97:../Libraries/STM32F4xx_StdPeriph_Driver/src/stm32f4xx_rtc.c ****   *            - Use the RTC_DayLightSavingConfig() function to add or sub one
  98:../Libraries/STM32F4xx_StdPeriph_Driver/src/stm32f4xx_rtc.c ****   *              hour to the RTC Calendar.    
  99:../Libraries/STM32F4xx_StdPeriph_Driver/src/stm32f4xx_rtc.c ****   *
 100:../Libraries/STM32F4xx_StdPeriph_Driver/src/stm32f4xx_rtc.c ****   *          Alarm configuration
 101:../Libraries/STM32F4xx_StdPeriph_Driver/src/stm32f4xx_rtc.c ****   *          ===================
 102:../Libraries/STM32F4xx_StdPeriph_Driver/src/stm32f4xx_rtc.c ****   *            - To configure the RTC Alarm use the RTC_SetAlarm() function.
 103:../Libraries/STM32F4xx_StdPeriph_Driver/src/stm32f4xx_rtc.c ****   *            - Enable the selected RTC Alarm using the RTC_AlarmCmd() function
 104:../Libraries/STM32F4xx_StdPeriph_Driver/src/stm32f4xx_rtc.c ****   *            - To read the RTC Alarm, use the RTC_GetAlarm() function.
 105:../Libraries/STM32F4xx_StdPeriph_Driver/src/stm32f4xx_rtc.c ****   *            - To read the RTC alarm SubSecond, use the RTC_GetAlarmSubSecond() function.
 106:../Libraries/STM32F4xx_StdPeriph_Driver/src/stm32f4xx_rtc.c ****   *
 107:../Libraries/STM32F4xx_StdPeriph_Driver/src/stm32f4xx_rtc.c ****   *          RTC Wakeup configuration
 108:../Libraries/STM32F4xx_StdPeriph_Driver/src/stm32f4xx_rtc.c ****   *          ========================
 109:../Libraries/STM32F4xx_StdPeriph_Driver/src/stm32f4xx_rtc.c ****   *            - Configure the RTC Wakeup Clock source use the RTC_WakeUpClockConfig()
 110:../Libraries/STM32F4xx_StdPeriph_Driver/src/stm32f4xx_rtc.c ****   *              function.
 111:../Libraries/STM32F4xx_StdPeriph_Driver/src/stm32f4xx_rtc.c ****   *            - Configure the RTC WakeUp Counter using the RTC_SetWakeUpCounter() 
 112:../Libraries/STM32F4xx_StdPeriph_Driver/src/stm32f4xx_rtc.c ****   *              function  
 113:../Libraries/STM32F4xx_StdPeriph_Driver/src/stm32f4xx_rtc.c ****   *            - Enable the RTC WakeUp using the RTC_WakeUpCmd() function  
 114:../Libraries/STM32F4xx_StdPeriph_Driver/src/stm32f4xx_rtc.c ****   *            - To read the RTC WakeUp Counter register, use the RTC_GetWakeUpCounter() 
 115:../Libraries/STM32F4xx_StdPeriph_Driver/src/stm32f4xx_rtc.c ****   *              function.
 116:../Libraries/STM32F4xx_StdPeriph_Driver/src/stm32f4xx_rtc.c ****   *
 117:../Libraries/STM32F4xx_StdPeriph_Driver/src/stm32f4xx_rtc.c ****   *          Outputs configuration
 118:../Libraries/STM32F4xx_StdPeriph_Driver/src/stm32f4xx_rtc.c ****   *          =====================
 119:../Libraries/STM32F4xx_StdPeriph_Driver/src/stm32f4xx_rtc.c ****   *          The RTC has 2 different outputs:
 120:../Libraries/STM32F4xx_StdPeriph_Driver/src/stm32f4xx_rtc.c ****   *            - AFO_ALARM: this output is used to manage the RTC Alarm A, Alarm B
 121:../Libraries/STM32F4xx_StdPeriph_Driver/src/stm32f4xx_rtc.c ****   *              and WaKeUp signals.          
 122:../Libraries/STM32F4xx_StdPeriph_Driver/src/stm32f4xx_rtc.c ****   *              To output the selected RTC signal on RTC_AF1 pin, use the 
 123:../Libraries/STM32F4xx_StdPeriph_Driver/src/stm32f4xx_rtc.c ****   *              RTC_OutputConfig() function.                
 124:../Libraries/STM32F4xx_StdPeriph_Driver/src/stm32f4xx_rtc.c ****   *            - AFO_CALIB: this output is 512Hz signal or 1Hz .  
 125:../Libraries/STM32F4xx_StdPeriph_Driver/src/stm32f4xx_rtc.c ****   *              To output the RTC Clock on RTC_AF1 pin, use the RTC_CalibOutputCmd()
 126:../Libraries/STM32F4xx_StdPeriph_Driver/src/stm32f4xx_rtc.c ****   *              function.
 127:../Libraries/STM32F4xx_StdPeriph_Driver/src/stm32f4xx_rtc.c ****   *
 128:../Libraries/STM32F4xx_StdPeriph_Driver/src/stm32f4xx_rtc.c ****   *          Smooth digital Calibration configuration
 129:../Libraries/STM32F4xx_StdPeriph_Driver/src/stm32f4xx_rtc.c ****   *          =================================    
 130:../Libraries/STM32F4xx_StdPeriph_Driver/src/stm32f4xx_rtc.c ****   *            - Configure the RTC Original Digital Calibration Value and the corresponding
 131:../Libraries/STM32F4xx_StdPeriph_Driver/src/stm32f4xx_rtc.c ****   *              calibration cycle period (32s,16s and 8s) using the RTC_SmoothCalibConfig() 
 132:../Libraries/STM32F4xx_StdPeriph_Driver/src/stm32f4xx_rtc.c ****   *              function.
 133:../Libraries/STM32F4xx_StdPeriph_Driver/src/stm32f4xx_rtc.c ****   *
 134:../Libraries/STM32F4xx_StdPeriph_Driver/src/stm32f4xx_rtc.c ****   *          Coarse digital Calibration configuration
 135:../Libraries/STM32F4xx_StdPeriph_Driver/src/stm32f4xx_rtc.c ****   *          =================================
 136:../Libraries/STM32F4xx_StdPeriph_Driver/src/stm32f4xx_rtc.c ****   *            - Configure the RTC Coarse Calibration Value and the corresponding
 137:../Libraries/STM32F4xx_StdPeriph_Driver/src/stm32f4xx_rtc.c ****   *              sign using the RTC_CoarseCalibConfig() function.
 138:../Libraries/STM32F4xx_StdPeriph_Driver/src/stm32f4xx_rtc.c ****   *            - Enable the RTC Coarse Calibration using the RTC_CoarseCalibCmd() 
 139:../Libraries/STM32F4xx_StdPeriph_Driver/src/stm32f4xx_rtc.c ****   *              function  
 140:../Libraries/STM32F4xx_StdPeriph_Driver/src/stm32f4xx_rtc.c ****   *
 141:../Libraries/STM32F4xx_StdPeriph_Driver/src/stm32f4xx_rtc.c ****   *          TimeStamp configuration
 142:../Libraries/STM32F4xx_StdPeriph_Driver/src/stm32f4xx_rtc.c ****   *          =======================
 143:../Libraries/STM32F4xx_StdPeriph_Driver/src/stm32f4xx_rtc.c ****   *            - Configure the RTC_AF1 trigger and enables the RTC TimeStamp 
 144:../Libraries/STM32F4xx_StdPeriph_Driver/src/stm32f4xx_rtc.c ****   *              using the RTC_TimeStampCmd() function.
 145:../Libraries/STM32F4xx_StdPeriph_Driver/src/stm32f4xx_rtc.c ****   *            - To read the RTC TimeStamp Time and Date register, use the 
 146:../Libraries/STM32F4xx_StdPeriph_Driver/src/stm32f4xx_rtc.c ****   *              RTC_GetTimeStamp() function.
 147:../Libraries/STM32F4xx_StdPeriph_Driver/src/stm32f4xx_rtc.c ****   *            - To read the RTC TimeStamp SubSecond register, use the 
 148:../Libraries/STM32F4xx_StdPeriph_Driver/src/stm32f4xx_rtc.c ****   *              RTC_GetTimeStampSubSecond() function.
 149:../Libraries/STM32F4xx_StdPeriph_Driver/src/stm32f4xx_rtc.c ****   *            - The TAMPER1 alternate function can be mapped either to RTC_AF1(PC13)
 150:../Libraries/STM32F4xx_StdPeriph_Driver/src/stm32f4xx_rtc.c ****   *              or RTC_AF2 (PI8) depending on the value of TAMP1INSEL bit in 
 151:../Libraries/STM32F4xx_StdPeriph_Driver/src/stm32f4xx_rtc.c ****   *              RTC_TAFCR register. You can use the  RTC_TamperPinSelection()
 152:../Libraries/STM32F4xx_StdPeriph_Driver/src/stm32f4xx_rtc.c ****   *              function to select the corresponding pin.     
 153:../Libraries/STM32F4xx_StdPeriph_Driver/src/stm32f4xx_rtc.c ****   *
 154:../Libraries/STM32F4xx_StdPeriph_Driver/src/stm32f4xx_rtc.c ****   *          Tamper configuration
 155:../Libraries/STM32F4xx_StdPeriph_Driver/src/stm32f4xx_rtc.c ****   *          ====================
 156:../Libraries/STM32F4xx_StdPeriph_Driver/src/stm32f4xx_rtc.c ****   *            - Enable the RTC Tamper using the RTC_TamperCmd() function.
 157:../Libraries/STM32F4xx_StdPeriph_Driver/src/stm32f4xx_rtc.c ****   *             - Configure the Tamper filter count using RTC_TamperFilterConfig()
 158:../Libraries/STM32F4xx_StdPeriph_Driver/src/stm32f4xx_rtc.c ****   *              function. 
 159:../Libraries/STM32F4xx_StdPeriph_Driver/src/stm32f4xx_rtc.c ****   *            - Configure the RTC Tamper trigger Edge or Level according to the Tamper 
 160:../Libraries/STM32F4xx_StdPeriph_Driver/src/stm32f4xx_rtc.c ****   *              filter (if equal to 0 Edge else Level) value using the RTC_TamperConfig() function
 161:../Libraries/STM32F4xx_StdPeriph_Driver/src/stm32f4xx_rtc.c ****   *            - Configure the Tamper sampling frequency using RTC_TamperSamplingFreqConfig()
 162:../Libraries/STM32F4xx_StdPeriph_Driver/src/stm32f4xx_rtc.c ****   *              function.
 163:../Libraries/STM32F4xx_StdPeriph_Driver/src/stm32f4xx_rtc.c ****   *            - Configure the Tamper precharge or discharge duration using 
 164:../Libraries/STM32F4xx_StdPeriph_Driver/src/stm32f4xx_rtc.c ****   *              RTC_TamperPinsPrechargeDuration() function.
 165:../Libraries/STM32F4xx_StdPeriph_Driver/src/stm32f4xx_rtc.c ****   *            - Enable the Tamper Pull-UP using RTC_TamperPullUpDisableCmd() function.
 166:../Libraries/STM32F4xx_StdPeriph_Driver/src/stm32f4xx_rtc.c ****   *            - Enable the Time stamp on Tamper detection event using  
 167:../Libraries/STM32F4xx_StdPeriph_Driver/src/stm32f4xx_rtc.c ****   *              RTC_TSOnTamperDetecCmd() function.
 168:../Libraries/STM32F4xx_StdPeriph_Driver/src/stm32f4xx_rtc.c ****   *            - The TIMESTAMP alternate function can be mapped to either RTC_AF1 
 169:../Libraries/STM32F4xx_StdPeriph_Driver/src/stm32f4xx_rtc.c ****   *              or RTC_AF2 depending on the value of the TSINSEL bit in the 
 170:../Libraries/STM32F4xx_StdPeriph_Driver/src/stm32f4xx_rtc.c ****   *              RTC_TAFCR register. You can use the  RTC_TimeStampPinSelection()
 171:../Libraries/STM32F4xx_StdPeriph_Driver/src/stm32f4xx_rtc.c ****   *              function to select the corresponding pin. 
 172:../Libraries/STM32F4xx_StdPeriph_Driver/src/stm32f4xx_rtc.c ****   *
 173:../Libraries/STM32F4xx_StdPeriph_Driver/src/stm32f4xx_rtc.c ****   *          Backup Data Registers configuration
 174:../Libraries/STM32F4xx_StdPeriph_Driver/src/stm32f4xx_rtc.c ****   *          ===================================
 175:../Libraries/STM32F4xx_StdPeriph_Driver/src/stm32f4xx_rtc.c ****   *            - To write to the RTC Backup Data registers, use the RTC_WriteBackupRegister()
 176:../Libraries/STM32F4xx_StdPeriph_Driver/src/stm32f4xx_rtc.c ****   *              function.  
 177:../Libraries/STM32F4xx_StdPeriph_Driver/src/stm32f4xx_rtc.c ****   *            - To read the RTC Backup Data registers, use the RTC_ReadBackupRegister()
 178:../Libraries/STM32F4xx_StdPeriph_Driver/src/stm32f4xx_rtc.c ****   *              function.
 179:../Libraries/STM32F4xx_StdPeriph_Driver/src/stm32f4xx_rtc.c ****   * 
 180:../Libraries/STM32F4xx_StdPeriph_Driver/src/stm32f4xx_rtc.c ****   *          ===================================================================
 181:../Libraries/STM32F4xx_StdPeriph_Driver/src/stm32f4xx_rtc.c ****   *                                  RTC and low power modes
 182:../Libraries/STM32F4xx_StdPeriph_Driver/src/stm32f4xx_rtc.c ****   *          ===================================================================
 183:../Libraries/STM32F4xx_StdPeriph_Driver/src/stm32f4xx_rtc.c ****   *           The MCU can be woken up from a low power mode by an RTC alternate 
 184:../Libraries/STM32F4xx_StdPeriph_Driver/src/stm32f4xx_rtc.c ****   *           function.
 185:../Libraries/STM32F4xx_StdPeriph_Driver/src/stm32f4xx_rtc.c ****   *           The RTC alternate functions are the RTC alarms (Alarm A and Alarm B), 
 186:../Libraries/STM32F4xx_StdPeriph_Driver/src/stm32f4xx_rtc.c ****   *           RTC wakeup, RTC tamper event detection and RTC time stamp event detection.
 187:../Libraries/STM32F4xx_StdPeriph_Driver/src/stm32f4xx_rtc.c ****   *           These RTC alternate functions can wake up the system from the Stop 
 188:../Libraries/STM32F4xx_StdPeriph_Driver/src/stm32f4xx_rtc.c ****   *           and Standby lowpower modes.
 189:../Libraries/STM32F4xx_StdPeriph_Driver/src/stm32f4xx_rtc.c ****   *           The system can also wake up from low power modes without depending 
 190:../Libraries/STM32F4xx_StdPeriph_Driver/src/stm32f4xx_rtc.c ****   *           on an external interrupt (Auto-wakeup mode), by using the RTC alarm 
 191:../Libraries/STM32F4xx_StdPeriph_Driver/src/stm32f4xx_rtc.c ****   *           or the RTC wakeup events.
 192:../Libraries/STM32F4xx_StdPeriph_Driver/src/stm32f4xx_rtc.c ****   *           The RTC provides a programmable time base for waking up from the 
 193:../Libraries/STM32F4xx_StdPeriph_Driver/src/stm32f4xx_rtc.c ****   *           Stop or Standby mode at regular intervals.
 194:../Libraries/STM32F4xx_StdPeriph_Driver/src/stm32f4xx_rtc.c ****   *           Wakeup from STOP and Standby modes is possible only when the RTC 
 195:../Libraries/STM32F4xx_StdPeriph_Driver/src/stm32f4xx_rtc.c ****   *           clock source is LSE or LSI.
 196:../Libraries/STM32F4xx_StdPeriph_Driver/src/stm32f4xx_rtc.c ****   *
 197:../Libraries/STM32F4xx_StdPeriph_Driver/src/stm32f4xx_rtc.c ****   *          ===================================================================
 198:../Libraries/STM32F4xx_StdPeriph_Driver/src/stm32f4xx_rtc.c ****   *                            Selection of RTC_AF1 alternate functions
 199:../Libraries/STM32F4xx_StdPeriph_Driver/src/stm32f4xx_rtc.c ****   *          ===================================================================
 200:../Libraries/STM32F4xx_StdPeriph_Driver/src/stm32f4xx_rtc.c ****   *          The RTC_AF1 pin (PC13) can be used for the following purposes:
 201:../Libraries/STM32F4xx_StdPeriph_Driver/src/stm32f4xx_rtc.c ****   *            - AFO_ALARM output
 202:../Libraries/STM32F4xx_StdPeriph_Driver/src/stm32f4xx_rtc.c ****   *            - AFO_CALIB output
 203:../Libraries/STM32F4xx_StdPeriph_Driver/src/stm32f4xx_rtc.c ****   *            - AFI_TAMPER
 204:../Libraries/STM32F4xx_StdPeriph_Driver/src/stm32f4xx_rtc.c ****   *            - AFI_TIMESTAMP
 205:../Libraries/STM32F4xx_StdPeriph_Driver/src/stm32f4xx_rtc.c ****   *
 206:../Libraries/STM32F4xx_StdPeriph_Driver/src/stm32f4xx_rtc.c ****   * +----------------------------------------------------------------------------------------------
 207:../Libraries/STM32F4xx_StdPeriph_Driver/src/stm32f4xx_rtc.c ****   * |     Pin         |AFO_ALARM |AFO_CALIB |AFI_TAMPER |AFI_TIMESTAMP | TAMP1INSEL |   TSINSEL    
 208:../Libraries/STM32F4xx_StdPeriph_Driver/src/stm32f4xx_rtc.c ****   * |  configuration  | ENABLED  | ENABLED  |  ENABLED  |   ENABLED    |TAMPER1 pin |TIMESTAMP pin 
 209:../Libraries/STM32F4xx_StdPeriph_Driver/src/stm32f4xx_rtc.c ****   * |  and function   |          |          |           |              | selection  |  selection   
 210:../Libraries/STM32F4xx_StdPeriph_Driver/src/stm32f4xx_rtc.c ****   * |-----------------|----------|----------|-----------|--------------|------------|--------------
 211:../Libraries/STM32F4xx_StdPeriph_Driver/src/stm32f4xx_rtc.c ****   * |   Alarm out     |          |          |           |              |    Don't   |     Don't    
 212:../Libraries/STM32F4xx_StdPeriph_Driver/src/stm32f4xx_rtc.c ****   * |   output OD     |     1    |Don't care|Don't care | Don't care   |    care    |     care     
 213:../Libraries/STM32F4xx_StdPeriph_Driver/src/stm32f4xx_rtc.c ****   * |-----------------|----------|----------|-----------|--------------|------------|--------------
 214:../Libraries/STM32F4xx_StdPeriph_Driver/src/stm32f4xx_rtc.c ****   * |   Alarm out     |          |          |           |              |    Don't   |     Don't    
 215:../Libraries/STM32F4xx_StdPeriph_Driver/src/stm32f4xx_rtc.c ****   * |   output PP     |     1    |Don't care|Don't care | Don't care   |    care    |     care     
 216:../Libraries/STM32F4xx_StdPeriph_Driver/src/stm32f4xx_rtc.c ****   * |-----------------|----------|----------|-----------|--------------|------------|--------------
 217:../Libraries/STM32F4xx_StdPeriph_Driver/src/stm32f4xx_rtc.c ****   * | Calibration out |          |          |           |              |    Don't   |     Don't    
 218:../Libraries/STM32F4xx_StdPeriph_Driver/src/stm32f4xx_rtc.c ****   * |   output PP     |     0    |    1     |Don't care | Don't care   |    care    |     care     
 219:../Libraries/STM32F4xx_StdPeriph_Driver/src/stm32f4xx_rtc.c ****   * |-----------------|----------|----------|-----------|--------------|------------|--------------
 220:../Libraries/STM32F4xx_StdPeriph_Driver/src/stm32f4xx_rtc.c ****   * |  TAMPER input   |          |          |           |              |            |     Don't    
 221:../Libraries/STM32F4xx_StdPeriph_Driver/src/stm32f4xx_rtc.c ****   * |   floating      |     0    |    0     |     1     |      0       |      0     |     care     
 222:../Libraries/STM32F4xx_StdPeriph_Driver/src/stm32f4xx_rtc.c ****   * |-----------------|----------|----------|-----------|--------------|------------|--------------
 223:../Libraries/STM32F4xx_StdPeriph_Driver/src/stm32f4xx_rtc.c ****   * |  TIMESTAMP and  |          |          |           |              |            |              
 224:../Libraries/STM32F4xx_StdPeriph_Driver/src/stm32f4xx_rtc.c ****   * |  TAMPER input   |     0    |    0     |     1     |      1       |      0     |      0       
 225:../Libraries/STM32F4xx_StdPeriph_Driver/src/stm32f4xx_rtc.c ****   * |   floating      |          |          |           |              |            |              
 226:../Libraries/STM32F4xx_StdPeriph_Driver/src/stm32f4xx_rtc.c ****   * |-----------------|----------|----------|-----------|--------------|------------|--------------
 227:../Libraries/STM32F4xx_StdPeriph_Driver/src/stm32f4xx_rtc.c ****   * | TIMESTAMP input |          |          |           |              |    Don't   |              
 228:../Libraries/STM32F4xx_StdPeriph_Driver/src/stm32f4xx_rtc.c ****   * |    floating     |     0    |    0     |     0     |      1       |    care    |      0       
 229:../Libraries/STM32F4xx_StdPeriph_Driver/src/stm32f4xx_rtc.c ****   * |-----------------|----------|----------|-----------|--------------|------------|--------------
 230:../Libraries/STM32F4xx_StdPeriph_Driver/src/stm32f4xx_rtc.c ****   * |  Standard GPIO  |     0    |    0     |     0     |      0       | Don't care |  Don't care  
 231:../Libraries/STM32F4xx_StdPeriph_Driver/src/stm32f4xx_rtc.c ****   * +----------------------------------------------------------------------------------------------
 232:../Libraries/STM32F4xx_StdPeriph_Driver/src/stm32f4xx_rtc.c ****   *
 233:../Libraries/STM32F4xx_StdPeriph_Driver/src/stm32f4xx_rtc.c ****   *
 234:../Libraries/STM32F4xx_StdPeriph_Driver/src/stm32f4xx_rtc.c ****   *          ===================================================================
 235:../Libraries/STM32F4xx_StdPeriph_Driver/src/stm32f4xx_rtc.c ****   *                            Selection of RTC_AF2 alternate functions
 236:../Libraries/STM32F4xx_StdPeriph_Driver/src/stm32f4xx_rtc.c ****   *          ===================================================================
 237:../Libraries/STM32F4xx_StdPeriph_Driver/src/stm32f4xx_rtc.c ****   *          The RTC_AF2 pin (PI8) can be used for the following purposes:
 238:../Libraries/STM32F4xx_StdPeriph_Driver/src/stm32f4xx_rtc.c ****   *            - AFI_TAMPER
 239:../Libraries/STM32F4xx_StdPeriph_Driver/src/stm32f4xx_rtc.c ****   *            - AFI_TIMESTAMP
 240:../Libraries/STM32F4xx_StdPeriph_Driver/src/stm32f4xx_rtc.c ****   *
 241:../Libraries/STM32F4xx_StdPeriph_Driver/src/stm32f4xx_rtc.c ****   * +---------------------------------------------------------------------------------------+
 242:../Libraries/STM32F4xx_StdPeriph_Driver/src/stm32f4xx_rtc.c ****   * |     Pin         |AFI_TAMPER |AFI_TIMESTAMP | TAMP1INSEL |   TSINSEL    |ALARMOUTTYPE  |
 243:../Libraries/STM32F4xx_StdPeriph_Driver/src/stm32f4xx_rtc.c ****   * |  configuration  |  ENABLED  |   ENABLED    |TAMPER1 pin |TIMESTAMP pin |  AFO_ALARM   |
 244:../Libraries/STM32F4xx_StdPeriph_Driver/src/stm32f4xx_rtc.c ****   * |  and function   |           |              | selection  |  selection   |Configuration |
 245:../Libraries/STM32F4xx_StdPeriph_Driver/src/stm32f4xx_rtc.c ****   * |-----------------|-----------|--------------|------------|--------------|--------------|
 246:../Libraries/STM32F4xx_StdPeriph_Driver/src/stm32f4xx_rtc.c ****   * |  TAMPER input   |           |              |            |     Don't    |              |
 247:../Libraries/STM32F4xx_StdPeriph_Driver/src/stm32f4xx_rtc.c ****   * |   floating      |     1     |      0       |      1     |     care     |  Don't care  |
 248:../Libraries/STM32F4xx_StdPeriph_Driver/src/stm32f4xx_rtc.c ****   * |-----------------|-----------|--------------|------------|--------------|--------------|
 249:../Libraries/STM32F4xx_StdPeriph_Driver/src/stm32f4xx_rtc.c ****   * |  TIMESTAMP and  |           |              |            |              |              |
 250:../Libraries/STM32F4xx_StdPeriph_Driver/src/stm32f4xx_rtc.c ****   * |  TAMPER input   |     1     |      1       |      1     |      1       |  Don't care  |
 251:../Libraries/STM32F4xx_StdPeriph_Driver/src/stm32f4xx_rtc.c ****   * |   floating      |           |              |            |              |              |
 252:../Libraries/STM32F4xx_StdPeriph_Driver/src/stm32f4xx_rtc.c ****   * |-----------------|-----------|--------------|------------|--------------|--------------|
 253:../Libraries/STM32F4xx_StdPeriph_Driver/src/stm32f4xx_rtc.c ****   * | TIMESTAMP input |           |              |    Don't   |              |              |
 254:../Libraries/STM32F4xx_StdPeriph_Driver/src/stm32f4xx_rtc.c ****   * |    floating     |     0     |      1       |    care    |      1       |  Don't care  |
 255:../Libraries/STM32F4xx_StdPeriph_Driver/src/stm32f4xx_rtc.c ****   * |-----------------|-----------|--------------|------------|--------------|--------------|
 256:../Libraries/STM32F4xx_StdPeriph_Driver/src/stm32f4xx_rtc.c ****   * |  Standard GPIO  |     0     |      0       | Don't care |  Don't care  |  Don't care  |
 257:../Libraries/STM32F4xx_StdPeriph_Driver/src/stm32f4xx_rtc.c ****   * +---------------------------------------------------------------------------------------+
 258:../Libraries/STM32F4xx_StdPeriph_Driver/src/stm32f4xx_rtc.c ****   * 
 259:../Libraries/STM32F4xx_StdPeriph_Driver/src/stm32f4xx_rtc.c ****   *
 260:../Libraries/STM32F4xx_StdPeriph_Driver/src/stm32f4xx_rtc.c ****   *  @endverbatim
 261:../Libraries/STM32F4xx_StdPeriph_Driver/src/stm32f4xx_rtc.c ****   *
 262:../Libraries/STM32F4xx_StdPeriph_Driver/src/stm32f4xx_rtc.c ****   ******************************************************************************
 263:../Libraries/STM32F4xx_StdPeriph_Driver/src/stm32f4xx_rtc.c ****   * @attention
 264:../Libraries/STM32F4xx_StdPeriph_Driver/src/stm32f4xx_rtc.c ****   *
 265:../Libraries/STM32F4xx_StdPeriph_Driver/src/stm32f4xx_rtc.c ****   * THE PRESENT FIRMWARE WHICH IS FOR GUIDANCE ONLY AIMS AT PROVIDING CUSTOMERS
 266:../Libraries/STM32F4xx_StdPeriph_Driver/src/stm32f4xx_rtc.c ****   * WITH CODING INFORMATION REGARDING THEIR PRODUCTS IN ORDER FOR THEM TO SAVE
 267:../Libraries/STM32F4xx_StdPeriph_Driver/src/stm32f4xx_rtc.c ****   * TIME. AS A RESULT, STMICROELECTRONICS SHALL NOT BE HELD LIABLE FOR ANY
 268:../Libraries/STM32F4xx_StdPeriph_Driver/src/stm32f4xx_rtc.c ****   * DIRECT, INDIRECT OR CONSEQUENTIAL DAMAGES WITH RESPECT TO ANY CLAIMS ARISING
 269:../Libraries/STM32F4xx_StdPeriph_Driver/src/stm32f4xx_rtc.c ****   * FROM THE CONTENT OF SUCH FIRMWARE AND/OR THE USE MADE BY CUSTOMERS OF THE
 270:../Libraries/STM32F4xx_StdPeriph_Driver/src/stm32f4xx_rtc.c ****   * CODING INFORMATION CONTAINED HEREIN IN CONNECTION WITH THEIR PRODUCTS.
 271:../Libraries/STM32F4xx_StdPeriph_Driver/src/stm32f4xx_rtc.c ****   *
 272:../Libraries/STM32F4xx_StdPeriph_Driver/src/stm32f4xx_rtc.c ****   * <h2><center>&copy; COPYRIGHT 2011 STMicroelectronics</center></h2>
 273:../Libraries/STM32F4xx_StdPeriph_Driver/src/stm32f4xx_rtc.c ****   ******************************************************************************
 274:../Libraries/STM32F4xx_StdPeriph_Driver/src/stm32f4xx_rtc.c ****   */ 
 275:../Libraries/STM32F4xx_StdPeriph_Driver/src/stm32f4xx_rtc.c **** 
 276:../Libraries/STM32F4xx_StdPeriph_Driver/src/stm32f4xx_rtc.c **** /* Includes ------------------------------------------------------------------*/
 277:../Libraries/STM32F4xx_StdPeriph_Driver/src/stm32f4xx_rtc.c **** #include "stm32f4xx_rtc.h"
 278:../Libraries/STM32F4xx_StdPeriph_Driver/src/stm32f4xx_rtc.c **** #include "stm32f4xx_rcc.h"
 279:../Libraries/STM32F4xx_StdPeriph_Driver/src/stm32f4xx_rtc.c **** 
 280:../Libraries/STM32F4xx_StdPeriph_Driver/src/stm32f4xx_rtc.c **** /** @addtogroup STM32F4xx_StdPeriph_Driver
 281:../Libraries/STM32F4xx_StdPeriph_Driver/src/stm32f4xx_rtc.c ****   * @{
 282:../Libraries/STM32F4xx_StdPeriph_Driver/src/stm32f4xx_rtc.c ****   */
 283:../Libraries/STM32F4xx_StdPeriph_Driver/src/stm32f4xx_rtc.c **** 
 284:../Libraries/STM32F4xx_StdPeriph_Driver/src/stm32f4xx_rtc.c **** /** @defgroup RTC 
 285:../Libraries/STM32F4xx_StdPeriph_Driver/src/stm32f4xx_rtc.c ****   * @brief RTC driver modules
 286:../Libraries/STM32F4xx_StdPeriph_Driver/src/stm32f4xx_rtc.c ****   * @{
 287:../Libraries/STM32F4xx_StdPeriph_Driver/src/stm32f4xx_rtc.c ****   */
 288:../Libraries/STM32F4xx_StdPeriph_Driver/src/stm32f4xx_rtc.c **** 
 289:../Libraries/STM32F4xx_StdPeriph_Driver/src/stm32f4xx_rtc.c **** /* Private typedef -----------------------------------------------------------*/
 290:../Libraries/STM32F4xx_StdPeriph_Driver/src/stm32f4xx_rtc.c **** /* Private define ------------------------------------------------------------*/
 291:../Libraries/STM32F4xx_StdPeriph_Driver/src/stm32f4xx_rtc.c **** 
 292:../Libraries/STM32F4xx_StdPeriph_Driver/src/stm32f4xx_rtc.c **** /* Masks Definition */
 293:../Libraries/STM32F4xx_StdPeriph_Driver/src/stm32f4xx_rtc.c **** #define RTC_TR_RESERVED_MASK    ((uint32_t)0x007F7F7F)
 294:../Libraries/STM32F4xx_StdPeriph_Driver/src/stm32f4xx_rtc.c **** #define RTC_DR_RESERVED_MASK    ((uint32_t)0x00FFFF3F) 
 295:../Libraries/STM32F4xx_StdPeriph_Driver/src/stm32f4xx_rtc.c **** #define RTC_INIT_MASK           ((uint32_t)0xFFFFFFFF)  
 296:../Libraries/STM32F4xx_StdPeriph_Driver/src/stm32f4xx_rtc.c **** #define RTC_RSF_MASK            ((uint32_t)0xFFFFFF5F)
 297:../Libraries/STM32F4xx_StdPeriph_Driver/src/stm32f4xx_rtc.c **** #define RTC_FLAGS_MASK          ((uint32_t)(RTC_FLAG_TSOVF | RTC_FLAG_TSF | RTC_FLAG_WUTF | \
 298:../Libraries/STM32F4xx_StdPeriph_Driver/src/stm32f4xx_rtc.c ****                                             RTC_FLAG_ALRBF | RTC_FLAG_ALRAF | RTC_FLAG_INITF | \
 299:../Libraries/STM32F4xx_StdPeriph_Driver/src/stm32f4xx_rtc.c ****                                             RTC_FLAG_RSF | RTC_FLAG_INITS | RTC_FLAG_WUTWF | \
 300:../Libraries/STM32F4xx_StdPeriph_Driver/src/stm32f4xx_rtc.c ****                                             RTC_FLAG_ALRBWF | RTC_FLAG_ALRAWF | RTC_FLAG_TAMP1F ))
 301:../Libraries/STM32F4xx_StdPeriph_Driver/src/stm32f4xx_rtc.c **** 
 302:../Libraries/STM32F4xx_StdPeriph_Driver/src/stm32f4xx_rtc.c **** #define INITMODE_TIMEOUT         ((uint32_t) 0x00010000)
 303:../Libraries/STM32F4xx_StdPeriph_Driver/src/stm32f4xx_rtc.c **** #define SYNCHRO_TIMEOUT          ((uint32_t) 0x00020000)
 304:../Libraries/STM32F4xx_StdPeriph_Driver/src/stm32f4xx_rtc.c **** #define RECALPF_TIMEOUT          ((uint32_t) 0x00020000)
 305:../Libraries/STM32F4xx_StdPeriph_Driver/src/stm32f4xx_rtc.c **** #define SHPF_TIMEOUT             ((uint32_t) 0x00001000)
 306:../Libraries/STM32F4xx_StdPeriph_Driver/src/stm32f4xx_rtc.c **** 
 307:../Libraries/STM32F4xx_StdPeriph_Driver/src/stm32f4xx_rtc.c **** /* Private macro -------------------------------------------------------------*/
 308:../Libraries/STM32F4xx_StdPeriph_Driver/src/stm32f4xx_rtc.c **** /* Private variables ---------------------------------------------------------*/
 309:../Libraries/STM32F4xx_StdPeriph_Driver/src/stm32f4xx_rtc.c **** /* Private function prototypes -----------------------------------------------*/
 310:../Libraries/STM32F4xx_StdPeriph_Driver/src/stm32f4xx_rtc.c **** static uint8_t RTC_ByteToBcd2(uint8_t Value);
 311:../Libraries/STM32F4xx_StdPeriph_Driver/src/stm32f4xx_rtc.c **** static uint8_t RTC_Bcd2ToByte(uint8_t Value);
 312:../Libraries/STM32F4xx_StdPeriph_Driver/src/stm32f4xx_rtc.c **** 
 313:../Libraries/STM32F4xx_StdPeriph_Driver/src/stm32f4xx_rtc.c **** /* Private functions ---------------------------------------------------------*/
 314:../Libraries/STM32F4xx_StdPeriph_Driver/src/stm32f4xx_rtc.c **** 
 315:../Libraries/STM32F4xx_StdPeriph_Driver/src/stm32f4xx_rtc.c **** /** @defgroup RTC_Private_Functions
 316:../Libraries/STM32F4xx_StdPeriph_Driver/src/stm32f4xx_rtc.c ****   * @{
 317:../Libraries/STM32F4xx_StdPeriph_Driver/src/stm32f4xx_rtc.c ****   */ 
 318:../Libraries/STM32F4xx_StdPeriph_Driver/src/stm32f4xx_rtc.c **** 
 319:../Libraries/STM32F4xx_StdPeriph_Driver/src/stm32f4xx_rtc.c **** /** @defgroup RTC_Group1 Initialization and Configuration functions
 320:../Libraries/STM32F4xx_StdPeriph_Driver/src/stm32f4xx_rtc.c ****  *  @brief   Initialization and Configuration functions 
 321:../Libraries/STM32F4xx_StdPeriph_Driver/src/stm32f4xx_rtc.c ****  *
 322:../Libraries/STM32F4xx_StdPeriph_Driver/src/stm32f4xx_rtc.c **** @verbatim   
 323:../Libraries/STM32F4xx_StdPeriph_Driver/src/stm32f4xx_rtc.c ****  ===============================================================================
 324:../Libraries/STM32F4xx_StdPeriph_Driver/src/stm32f4xx_rtc.c ****                  Initialization and Configuration functions
 325:../Libraries/STM32F4xx_StdPeriph_Driver/src/stm32f4xx_rtc.c ****  ===============================================================================
 326:../Libraries/STM32F4xx_StdPeriph_Driver/src/stm32f4xx_rtc.c **** 
 327:../Libraries/STM32F4xx_StdPeriph_Driver/src/stm32f4xx_rtc.c ****   This section provide functions allowing to initialize and configure the RTC
 328:../Libraries/STM32F4xx_StdPeriph_Driver/src/stm32f4xx_rtc.c ****   Prescaler (Synchronous and Asynchronous), RTC Hour format, disable RTC registers
 329:../Libraries/STM32F4xx_StdPeriph_Driver/src/stm32f4xx_rtc.c ****   Write protection, enter and exit the RTC initialization mode, RTC registers
 330:../Libraries/STM32F4xx_StdPeriph_Driver/src/stm32f4xx_rtc.c ****   synchronization check and reference clock detection enable.
 331:../Libraries/STM32F4xx_StdPeriph_Driver/src/stm32f4xx_rtc.c ****   
 332:../Libraries/STM32F4xx_StdPeriph_Driver/src/stm32f4xx_rtc.c ****   1. The RTC Prescaler is programmed to generate the RTC 1Hz time base. It is
 333:../Libraries/STM32F4xx_StdPeriph_Driver/src/stm32f4xx_rtc.c ****      split into 2 programmable prescalers to minimize power consumption.
 334:../Libraries/STM32F4xx_StdPeriph_Driver/src/stm32f4xx_rtc.c ****      - A 7-bit asynchronous prescaler and A 13-bit synchronous prescaler.
 335:../Libraries/STM32F4xx_StdPeriph_Driver/src/stm32f4xx_rtc.c ****      - When both prescalers are used, it is recommended to configure the asynchronous
 336:../Libraries/STM32F4xx_StdPeriph_Driver/src/stm32f4xx_rtc.c ****        prescaler to a high value to minimize consumption.
 337:../Libraries/STM32F4xx_StdPeriph_Driver/src/stm32f4xx_rtc.c **** 
 338:../Libraries/STM32F4xx_StdPeriph_Driver/src/stm32f4xx_rtc.c ****   2. All RTC registers are Write protected. Writing to the RTC registers
 339:../Libraries/STM32F4xx_StdPeriph_Driver/src/stm32f4xx_rtc.c ****      is enabled by writing a key into the Write Protection register, RTC_WPR.
 340:../Libraries/STM32F4xx_StdPeriph_Driver/src/stm32f4xx_rtc.c **** 
 341:../Libraries/STM32F4xx_StdPeriph_Driver/src/stm32f4xx_rtc.c ****   3. To Configure the RTC Calendar, user application should enter initialization
 342:../Libraries/STM32F4xx_StdPeriph_Driver/src/stm32f4xx_rtc.c ****      mode. In this mode, the calendar counter is stopped and its value can be 
 343:../Libraries/STM32F4xx_StdPeriph_Driver/src/stm32f4xx_rtc.c ****      updated. When the initialization sequence is complete, the calendar restarts 
 344:../Libraries/STM32F4xx_StdPeriph_Driver/src/stm32f4xx_rtc.c ****      counting after 4 RTCCLK cycles.
 345:../Libraries/STM32F4xx_StdPeriph_Driver/src/stm32f4xx_rtc.c **** 
 346:../Libraries/STM32F4xx_StdPeriph_Driver/src/stm32f4xx_rtc.c ****   4. To read the calendar through the shadow registers after Calendar initialization,
 347:../Libraries/STM32F4xx_StdPeriph_Driver/src/stm32f4xx_rtc.c ****      calendar update or after wakeup from low power modes the software must first 
 348:../Libraries/STM32F4xx_StdPeriph_Driver/src/stm32f4xx_rtc.c ****      clear the RSF flag. The software must then wait until it is set again before 
 349:../Libraries/STM32F4xx_StdPeriph_Driver/src/stm32f4xx_rtc.c ****      reading the calendar, which means that the calendar registers have been 
 350:../Libraries/STM32F4xx_StdPeriph_Driver/src/stm32f4xx_rtc.c ****      correctly copied into the RTC_TR and RTC_DR shadow registers.
 351:../Libraries/STM32F4xx_StdPeriph_Driver/src/stm32f4xx_rtc.c ****      The RTC_WaitForSynchro() function implements the above software sequence 
 352:../Libraries/STM32F4xx_StdPeriph_Driver/src/stm32f4xx_rtc.c ****      (RSF clear and RSF check).
 353:../Libraries/STM32F4xx_StdPeriph_Driver/src/stm32f4xx_rtc.c **** 
 354:../Libraries/STM32F4xx_StdPeriph_Driver/src/stm32f4xx_rtc.c **** @endverbatim
 355:../Libraries/STM32F4xx_StdPeriph_Driver/src/stm32f4xx_rtc.c ****   * @{
 356:../Libraries/STM32F4xx_StdPeriph_Driver/src/stm32f4xx_rtc.c ****   */
 357:../Libraries/STM32F4xx_StdPeriph_Driver/src/stm32f4xx_rtc.c **** 
 358:../Libraries/STM32F4xx_StdPeriph_Driver/src/stm32f4xx_rtc.c **** /**
 359:../Libraries/STM32F4xx_StdPeriph_Driver/src/stm32f4xx_rtc.c ****   * @brief  Deinitializes the RTC registers to their default reset values.
 360:../Libraries/STM32F4xx_StdPeriph_Driver/src/stm32f4xx_rtc.c ****   * @note   This function doesn't reset the RTC Clock source and RTC Backup Data
 361:../Libraries/STM32F4xx_StdPeriph_Driver/src/stm32f4xx_rtc.c ****   *         registers.       
 362:../Libraries/STM32F4xx_StdPeriph_Driver/src/stm32f4xx_rtc.c ****   * @param  None
 363:../Libraries/STM32F4xx_StdPeriph_Driver/src/stm32f4xx_rtc.c ****   * @retval An ErrorStatus enumeration value:
 364:../Libraries/STM32F4xx_StdPeriph_Driver/src/stm32f4xx_rtc.c ****   *          - SUCCESS: RTC registers are deinitialized
 365:../Libraries/STM32F4xx_StdPeriph_Driver/src/stm32f4xx_rtc.c ****   *          - ERROR: RTC registers are not deinitialized
 366:../Libraries/STM32F4xx_StdPeriph_Driver/src/stm32f4xx_rtc.c ****   */
 367:../Libraries/STM32F4xx_StdPeriph_Driver/src/stm32f4xx_rtc.c **** ErrorStatus RTC_DeInit(void)
 368:../Libraries/STM32F4xx_StdPeriph_Driver/src/stm32f4xx_rtc.c **** {
  26              		.loc 1 368 0
  27              		.cfi_startproc
  28              		@ args = 0, pretend = 0, frame = 16
  29              		@ frame_needed = 1, uses_anonymous_args = 0
  30 0000 80B5     		push	{r7, lr}
  31              	.LCFI0:
  32              		.cfi_def_cfa_offset 8
  33              		.cfi_offset 7, -8
  34              		.cfi_offset 14, -4
  35 0002 84B0     		sub	sp, sp, #16
  36              	.LCFI1:
  37              		.cfi_def_cfa_offset 24
  38 0004 00AF     		add	r7, sp, #0
  39              	.LCFI2:
  40              		.cfi_def_cfa_register 7
 369:../Libraries/STM32F4xx_StdPeriph_Driver/src/stm32f4xx_rtc.c ****   __IO uint32_t wutcounter = 0x00;
  41              		.loc 1 369 0
  42 0006 4FF00003 		mov	r3, #0
  43 000a 7B60     		str	r3, [r7, #4]
 370:../Libraries/STM32F4xx_StdPeriph_Driver/src/stm32f4xx_rtc.c ****   uint32_t wutwfstatus = 0x00;
  44              		.loc 1 370 0
  45 000c 4FF00003 		mov	r3, #0
  46 0010 BB60     		str	r3, [r7, #8]
 371:../Libraries/STM32F4xx_StdPeriph_Driver/src/stm32f4xx_rtc.c ****   ErrorStatus status = ERROR;
  47              		.loc 1 371 0
  48 0012 4FF00003 		mov	r3, #0
  49 0016 FB73     		strb	r3, [r7, #15]
 372:../Libraries/STM32F4xx_StdPeriph_Driver/src/stm32f4xx_rtc.c ****   
 373:../Libraries/STM32F4xx_StdPeriph_Driver/src/stm32f4xx_rtc.c ****   /* Disable the write protection for RTC registers */
 374:../Libraries/STM32F4xx_StdPeriph_Driver/src/stm32f4xx_rtc.c ****   RTC->WPR = 0xCA;
  50              		.loc 1 374 0
  51 0018 374B     		ldr	r3, .L9
  52 001a 4FF0CA02 		mov	r2, #202
  53 001e 5A62     		str	r2, [r3, #36]
 375:../Libraries/STM32F4xx_StdPeriph_Driver/src/stm32f4xx_rtc.c ****   RTC->WPR = 0x53;
  54              		.loc 1 375 0
  55 0020 354B     		ldr	r3, .L9
  56 0022 4FF05302 		mov	r2, #83
  57 0026 5A62     		str	r2, [r3, #36]
 376:../Libraries/STM32F4xx_StdPeriph_Driver/src/stm32f4xx_rtc.c **** 
 377:../Libraries/STM32F4xx_StdPeriph_Driver/src/stm32f4xx_rtc.c ****   /* Set Initialization mode */
 378:../Libraries/STM32F4xx_StdPeriph_Driver/src/stm32f4xx_rtc.c ****   if (RTC_EnterInitMode() == ERROR)
  58              		.loc 1 378 0
  59 0028 FFF7FEFF 		bl	RTC_EnterInitMode
  60 002c 0346     		mov	r3, r0
  61 002e 002B     		cmp	r3, #0
  62 0030 03D1     		bne	.L2
 379:../Libraries/STM32F4xx_StdPeriph_Driver/src/stm32f4xx_rtc.c ****   {
 380:../Libraries/STM32F4xx_StdPeriph_Driver/src/stm32f4xx_rtc.c ****     status = ERROR;
  63              		.loc 1 380 0
  64 0032 4FF00003 		mov	r3, #0
  65 0036 FB73     		strb	r3, [r7, #15]
  66 0038 54E0     		b	.L3
  67              	.L2:
 381:../Libraries/STM32F4xx_StdPeriph_Driver/src/stm32f4xx_rtc.c ****   }  
 382:../Libraries/STM32F4xx_StdPeriph_Driver/src/stm32f4xx_rtc.c ****   else
 383:../Libraries/STM32F4xx_StdPeriph_Driver/src/stm32f4xx_rtc.c ****   {
 384:../Libraries/STM32F4xx_StdPeriph_Driver/src/stm32f4xx_rtc.c ****     /* Reset TR, DR and CR registers */
 385:../Libraries/STM32F4xx_StdPeriph_Driver/src/stm32f4xx_rtc.c ****     RTC->TR = (uint32_t)0x00000000;
  68              		.loc 1 385 0
  69 003a 2F4B     		ldr	r3, .L9
  70 003c 4FF00002 		mov	r2, #0
  71 0040 1A60     		str	r2, [r3, #0]
 386:../Libraries/STM32F4xx_StdPeriph_Driver/src/stm32f4xx_rtc.c ****     RTC->DR = (uint32_t)0x00002101;
  72              		.loc 1 386 0
  73 0042 2D4B     		ldr	r3, .L9
  74 0044 42F20112 		movw	r2, #8449
  75 0048 5A60     		str	r2, [r3, #4]
 387:../Libraries/STM32F4xx_StdPeriph_Driver/src/stm32f4xx_rtc.c ****     /* Reset All CR bits except CR[2:0] */
 388:../Libraries/STM32F4xx_StdPeriph_Driver/src/stm32f4xx_rtc.c ****     RTC->CR &= (uint32_t)0x00000007;
  76              		.loc 1 388 0
  77 004a 2B4B     		ldr	r3, .L9
  78 004c 2A4A     		ldr	r2, .L9
  79 004e 9268     		ldr	r2, [r2, #8]
  80 0050 02F00702 		and	r2, r2, #7
  81 0054 9A60     		str	r2, [r3, #8]
  82              	.L5:
 389:../Libraries/STM32F4xx_StdPeriph_Driver/src/stm32f4xx_rtc.c ****   
 390:../Libraries/STM32F4xx_StdPeriph_Driver/src/stm32f4xx_rtc.c ****     /* Wait till RTC WUTWF flag is set and if Time out is reached exit */
 391:../Libraries/STM32F4xx_StdPeriph_Driver/src/stm32f4xx_rtc.c ****     do
 392:../Libraries/STM32F4xx_StdPeriph_Driver/src/stm32f4xx_rtc.c ****     {
 393:../Libraries/STM32F4xx_StdPeriph_Driver/src/stm32f4xx_rtc.c ****       wutwfstatus = RTC->ISR & RTC_ISR_WUTWF;
  83              		.loc 1 393 0 discriminator 1
  84 0056 284B     		ldr	r3, .L9
  85 0058 DB68     		ldr	r3, [r3, #12]
  86 005a 03F00403 		and	r3, r3, #4
  87 005e BB60     		str	r3, [r7, #8]
 394:../Libraries/STM32F4xx_StdPeriph_Driver/src/stm32f4xx_rtc.c ****       wutcounter++;  
  88              		.loc 1 394 0 discriminator 1
  89 0060 7B68     		ldr	r3, [r7, #4]
  90 0062 03F10103 		add	r3, r3, #1
  91 0066 7B60     		str	r3, [r7, #4]
 395:../Libraries/STM32F4xx_StdPeriph_Driver/src/stm32f4xx_rtc.c ****     } while((wutcounter != INITMODE_TIMEOUT) && (wutwfstatus == 0x00));
  92              		.loc 1 395 0 discriminator 1
  93 0068 7B68     		ldr	r3, [r7, #4]
  94 006a B3F5803F 		cmp	r3, #65536
  95 006e 02D0     		beq	.L4
  96 0070 BB68     		ldr	r3, [r7, #8]
  97 0072 002B     		cmp	r3, #0
  98 0074 EFD0     		beq	.L5
  99              	.L4:
 396:../Libraries/STM32F4xx_StdPeriph_Driver/src/stm32f4xx_rtc.c ****     
 397:../Libraries/STM32F4xx_StdPeriph_Driver/src/stm32f4xx_rtc.c ****     if ((RTC->ISR & RTC_ISR_WUTWF) == RESET)
 100              		.loc 1 397 0
 101 0076 204B     		ldr	r3, .L9
 102 0078 DB68     		ldr	r3, [r3, #12]
 103 007a 03F00403 		and	r3, r3, #4
 104 007e 002B     		cmp	r3, #0
 105 0080 03D1     		bne	.L6
 398:../Libraries/STM32F4xx_StdPeriph_Driver/src/stm32f4xx_rtc.c ****     {
 399:../Libraries/STM32F4xx_StdPeriph_Driver/src/stm32f4xx_rtc.c ****       status = ERROR;
 106              		.loc 1 399 0
 107 0082 4FF00003 		mov	r3, #0
 108 0086 FB73     		strb	r3, [r7, #15]
 109 0088 2CE0     		b	.L3
 110              	.L6:
 400:../Libraries/STM32F4xx_StdPeriph_Driver/src/stm32f4xx_rtc.c ****     }
 401:../Libraries/STM32F4xx_StdPeriph_Driver/src/stm32f4xx_rtc.c ****     else
 402:../Libraries/STM32F4xx_StdPeriph_Driver/src/stm32f4xx_rtc.c ****     {
 403:../Libraries/STM32F4xx_StdPeriph_Driver/src/stm32f4xx_rtc.c ****       /* Reset all RTC CR register bits */
 404:../Libraries/STM32F4xx_StdPeriph_Driver/src/stm32f4xx_rtc.c ****       RTC->CR &= (uint32_t)0x00000000;
 111              		.loc 1 404 0
 112 008a 1B4B     		ldr	r3, .L9
 113 008c 9B68     		ldr	r3, [r3, #8]
 114 008e 1A4B     		ldr	r3, .L9
 115 0090 4FF00002 		mov	r2, #0
 116 0094 9A60     		str	r2, [r3, #8]
 405:../Libraries/STM32F4xx_StdPeriph_Driver/src/stm32f4xx_rtc.c ****       RTC->WUTR = (uint32_t)0x0000FFFF;
 117              		.loc 1 405 0
 118 0096 184B     		ldr	r3, .L9
 119 0098 4FF6FF72 		movw	r2, #65535
 120 009c 5A61     		str	r2, [r3, #20]
 406:../Libraries/STM32F4xx_StdPeriph_Driver/src/stm32f4xx_rtc.c ****       RTC->PRER = (uint32_t)0x007F00FF;
 121              		.loc 1 406 0
 122 009e 164B     		ldr	r3, .L9
 123 00a0 164A     		ldr	r2, .L9+4
 124 00a2 1A61     		str	r2, [r3, #16]
 407:../Libraries/STM32F4xx_StdPeriph_Driver/src/stm32f4xx_rtc.c ****       RTC->CALIBR = (uint32_t)0x00000000;
 125              		.loc 1 407 0
 126 00a4 144B     		ldr	r3, .L9
 127 00a6 4FF00002 		mov	r2, #0
 128 00aa 9A61     		str	r2, [r3, #24]
 408:../Libraries/STM32F4xx_StdPeriph_Driver/src/stm32f4xx_rtc.c ****       RTC->ALRMAR = (uint32_t)0x00000000;        
 129              		.loc 1 408 0
 130 00ac 124B     		ldr	r3, .L9
 131 00ae 4FF00002 		mov	r2, #0
 132 00b2 DA61     		str	r2, [r3, #28]
 409:../Libraries/STM32F4xx_StdPeriph_Driver/src/stm32f4xx_rtc.c ****       RTC->ALRMBR = (uint32_t)0x00000000;
 133              		.loc 1 409 0
 134 00b4 104B     		ldr	r3, .L9
 135 00b6 4FF00002 		mov	r2, #0
 136 00ba 1A62     		str	r2, [r3, #32]
 410:../Libraries/STM32F4xx_StdPeriph_Driver/src/stm32f4xx_rtc.c ****       
 411:../Libraries/STM32F4xx_StdPeriph_Driver/src/stm32f4xx_rtc.c ****       /* Reset ISR register and exit initialization mode */
 412:../Libraries/STM32F4xx_StdPeriph_Driver/src/stm32f4xx_rtc.c ****       RTC->ISR = (uint32_t)0x00000000;
 137              		.loc 1 412 0
 138 00bc 0E4B     		ldr	r3, .L9
 139 00be 4FF00002 		mov	r2, #0
 140 00c2 DA60     		str	r2, [r3, #12]
 413:../Libraries/STM32F4xx_StdPeriph_Driver/src/stm32f4xx_rtc.c ****       
 414:../Libraries/STM32F4xx_StdPeriph_Driver/src/stm32f4xx_rtc.c ****       /* Reset Tamper and alternate functions configuration register */
 415:../Libraries/STM32F4xx_StdPeriph_Driver/src/stm32f4xx_rtc.c ****       RTC->TAFCR = 0x00000000;
 141              		.loc 1 415 0
 142 00c4 0C4B     		ldr	r3, .L9
 143 00c6 4FF00002 		mov	r2, #0
 144 00ca 1A64     		str	r2, [r3, #64]
 416:../Libraries/STM32F4xx_StdPeriph_Driver/src/stm32f4xx_rtc.c ****   
 417:../Libraries/STM32F4xx_StdPeriph_Driver/src/stm32f4xx_rtc.c ****       if(RTC_WaitForSynchro() == ERROR)
 145              		.loc 1 417 0
 146 00cc FFF7FEFF 		bl	RTC_WaitForSynchro
 147 00d0 0346     		mov	r3, r0
 148 00d2 002B     		cmp	r3, #0
 149 00d4 03D1     		bne	.L7
 418:../Libraries/STM32F4xx_StdPeriph_Driver/src/stm32f4xx_rtc.c ****       {
 419:../Libraries/STM32F4xx_StdPeriph_Driver/src/stm32f4xx_rtc.c ****         status = ERROR;
 150              		.loc 1 419 0
 151 00d6 4FF00003 		mov	r3, #0
 152 00da FB73     		strb	r3, [r7, #15]
 153 00dc 02E0     		b	.L3
 154              	.L7:
 420:../Libraries/STM32F4xx_StdPeriph_Driver/src/stm32f4xx_rtc.c ****       }
 421:../Libraries/STM32F4xx_StdPeriph_Driver/src/stm32f4xx_rtc.c ****       else
 422:../Libraries/STM32F4xx_StdPeriph_Driver/src/stm32f4xx_rtc.c ****       {
 423:../Libraries/STM32F4xx_StdPeriph_Driver/src/stm32f4xx_rtc.c ****         status = SUCCESS;      
 155              		.loc 1 423 0
 156 00de 4FF00103 		mov	r3, #1
 157 00e2 FB73     		strb	r3, [r7, #15]
 158              	.L3:
 424:../Libraries/STM32F4xx_StdPeriph_Driver/src/stm32f4xx_rtc.c ****       }
 425:../Libraries/STM32F4xx_StdPeriph_Driver/src/stm32f4xx_rtc.c ****     }
 426:../Libraries/STM32F4xx_StdPeriph_Driver/src/stm32f4xx_rtc.c ****   }
 427:../Libraries/STM32F4xx_StdPeriph_Driver/src/stm32f4xx_rtc.c ****   
 428:../Libraries/STM32F4xx_StdPeriph_Driver/src/stm32f4xx_rtc.c ****   /* Enable the write protection for RTC registers */
 429:../Libraries/STM32F4xx_StdPeriph_Driver/src/stm32f4xx_rtc.c ****   RTC->WPR = 0xFF;  
 159              		.loc 1 429 0
 160 00e4 044B     		ldr	r3, .L9
 161 00e6 4FF0FF02 		mov	r2, #255
 162 00ea 5A62     		str	r2, [r3, #36]
 430:../Libraries/STM32F4xx_StdPeriph_Driver/src/stm32f4xx_rtc.c ****   
 431:../Libraries/STM32F4xx_StdPeriph_Driver/src/stm32f4xx_rtc.c ****   return status;
 163              		.loc 1 431 0
 164 00ec FB7B     		ldrb	r3, [r7, #15]	@ zero_extendqisi2
 432:../Libraries/STM32F4xx_StdPeriph_Driver/src/stm32f4xx_rtc.c **** }
 165              		.loc 1 432 0
 166 00ee 1846     		mov	r0, r3
 167 00f0 07F11007 		add	r7, r7, #16
 168 00f4 BD46     		mov	sp, r7
 169 00f6 80BD     		pop	{r7, pc}
 170              	.L10:
 171              		.align	2
 172              	.L9:
 173 00f8 00280040 		.word	1073752064
 174 00fc FF007F00 		.word	8323327
 175              		.cfi_endproc
 176              	.LFE110:
 178              		.align	2
 179              		.global	RTC_Init
 180              		.thumb
 181              		.thumb_func
 183              	RTC_Init:
 184              	.LFB111:
 433:../Libraries/STM32F4xx_StdPeriph_Driver/src/stm32f4xx_rtc.c **** 
 434:../Libraries/STM32F4xx_StdPeriph_Driver/src/stm32f4xx_rtc.c **** /**
 435:../Libraries/STM32F4xx_StdPeriph_Driver/src/stm32f4xx_rtc.c ****   * @brief  Initializes the RTC registers according to the specified parameters 
 436:../Libraries/STM32F4xx_StdPeriph_Driver/src/stm32f4xx_rtc.c ****   *         in RTC_InitStruct.
 437:../Libraries/STM32F4xx_StdPeriph_Driver/src/stm32f4xx_rtc.c ****   * @param  RTC_InitStruct: pointer to a RTC_InitTypeDef structure that contains 
 438:../Libraries/STM32F4xx_StdPeriph_Driver/src/stm32f4xx_rtc.c ****   *         the configuration information for the RTC peripheral.
 439:../Libraries/STM32F4xx_StdPeriph_Driver/src/stm32f4xx_rtc.c ****   * @note   The RTC Prescaler register is write protected and can be written in 
 440:../Libraries/STM32F4xx_StdPeriph_Driver/src/stm32f4xx_rtc.c ****   *         initialization mode only.  
 441:../Libraries/STM32F4xx_StdPeriph_Driver/src/stm32f4xx_rtc.c ****   * @retval An ErrorStatus enumeration value:
 442:../Libraries/STM32F4xx_StdPeriph_Driver/src/stm32f4xx_rtc.c ****   *          - SUCCESS: RTC registers are initialized
 443:../Libraries/STM32F4xx_StdPeriph_Driver/src/stm32f4xx_rtc.c ****   *          - ERROR: RTC registers are not initialized  
 444:../Libraries/STM32F4xx_StdPeriph_Driver/src/stm32f4xx_rtc.c ****   */
 445:../Libraries/STM32F4xx_StdPeriph_Driver/src/stm32f4xx_rtc.c **** ErrorStatus RTC_Init(RTC_InitTypeDef* RTC_InitStruct)
 446:../Libraries/STM32F4xx_StdPeriph_Driver/src/stm32f4xx_rtc.c **** {
 185              		.loc 1 446 0
 186              		.cfi_startproc
 187              		@ args = 0, pretend = 0, frame = 16
 188              		@ frame_needed = 1, uses_anonymous_args = 0
 189 0100 80B5     		push	{r7, lr}
 190              	.LCFI3:
 191              		.cfi_def_cfa_offset 8
 192              		.cfi_offset 7, -8
 193              		.cfi_offset 14, -4
 194 0102 84B0     		sub	sp, sp, #16
 195              	.LCFI4:
 196              		.cfi_def_cfa_offset 24
 197 0104 00AF     		add	r7, sp, #0
 198              	.LCFI5:
 199              		.cfi_def_cfa_register 7
 200 0106 7860     		str	r0, [r7, #4]
 447:../Libraries/STM32F4xx_StdPeriph_Driver/src/stm32f4xx_rtc.c ****   ErrorStatus status = ERROR;
 201              		.loc 1 447 0
 202 0108 4FF00003 		mov	r3, #0
 203 010c FB73     		strb	r3, [r7, #15]
 448:../Libraries/STM32F4xx_StdPeriph_Driver/src/stm32f4xx_rtc.c ****   
 449:../Libraries/STM32F4xx_StdPeriph_Driver/src/stm32f4xx_rtc.c ****   /* Check the parameters */
 450:../Libraries/STM32F4xx_StdPeriph_Driver/src/stm32f4xx_rtc.c ****   assert_param(IS_RTC_HOUR_FORMAT(RTC_InitStruct->RTC_HourFormat));
 451:../Libraries/STM32F4xx_StdPeriph_Driver/src/stm32f4xx_rtc.c ****   assert_param(IS_RTC_ASYNCH_PREDIV(RTC_InitStruct->RTC_AsynchPrediv));
 452:../Libraries/STM32F4xx_StdPeriph_Driver/src/stm32f4xx_rtc.c ****   assert_param(IS_RTC_SYNCH_PREDIV(RTC_InitStruct->RTC_SynchPrediv));
 453:../Libraries/STM32F4xx_StdPeriph_Driver/src/stm32f4xx_rtc.c **** 
 454:../Libraries/STM32F4xx_StdPeriph_Driver/src/stm32f4xx_rtc.c ****   /* Disable the write protection for RTC registers */
 455:../Libraries/STM32F4xx_StdPeriph_Driver/src/stm32f4xx_rtc.c ****   RTC->WPR = 0xCA;
 204              		.loc 1 455 0
 205 010e 1D4B     		ldr	r3, .L15
 206 0110 4FF0CA02 		mov	r2, #202
 207 0114 5A62     		str	r2, [r3, #36]
 456:../Libraries/STM32F4xx_StdPeriph_Driver/src/stm32f4xx_rtc.c ****   RTC->WPR = 0x53;
 208              		.loc 1 456 0
 209 0116 1B4B     		ldr	r3, .L15
 210 0118 4FF05302 		mov	r2, #83
 211 011c 5A62     		str	r2, [r3, #36]
 457:../Libraries/STM32F4xx_StdPeriph_Driver/src/stm32f4xx_rtc.c **** 
 458:../Libraries/STM32F4xx_StdPeriph_Driver/src/stm32f4xx_rtc.c ****   /* Set Initialization mode */
 459:../Libraries/STM32F4xx_StdPeriph_Driver/src/stm32f4xx_rtc.c ****   if (RTC_EnterInitMode() == ERROR)
 212              		.loc 1 459 0
 213 011e FFF7FEFF 		bl	RTC_EnterInitMode
 214 0122 0346     		mov	r3, r0
 215 0124 002B     		cmp	r3, #0
 216 0126 03D1     		bne	.L12
 460:../Libraries/STM32F4xx_StdPeriph_Driver/src/stm32f4xx_rtc.c ****   {
 461:../Libraries/STM32F4xx_StdPeriph_Driver/src/stm32f4xx_rtc.c ****     status = ERROR;
 217              		.loc 1 461 0
 218 0128 4FF00003 		mov	r3, #0
 219 012c FB73     		strb	r3, [r7, #15]
 220 012e 1EE0     		b	.L13
 221              	.L12:
 462:../Libraries/STM32F4xx_StdPeriph_Driver/src/stm32f4xx_rtc.c ****   } 
 463:../Libraries/STM32F4xx_StdPeriph_Driver/src/stm32f4xx_rtc.c ****   else
 464:../Libraries/STM32F4xx_StdPeriph_Driver/src/stm32f4xx_rtc.c ****   {
 465:../Libraries/STM32F4xx_StdPeriph_Driver/src/stm32f4xx_rtc.c ****     /* Clear RTC CR FMT Bit */
 466:../Libraries/STM32F4xx_StdPeriph_Driver/src/stm32f4xx_rtc.c ****     RTC->CR &= ((uint32_t)~(RTC_CR_FMT));
 222              		.loc 1 466 0
 223 0130 144B     		ldr	r3, .L15
 224 0132 144A     		ldr	r2, .L15
 225 0134 9268     		ldr	r2, [r2, #8]
 226 0136 22F04002 		bic	r2, r2, #64
 227 013a 9A60     		str	r2, [r3, #8]
 467:../Libraries/STM32F4xx_StdPeriph_Driver/src/stm32f4xx_rtc.c ****     /* Set RTC_CR register */
 468:../Libraries/STM32F4xx_StdPeriph_Driver/src/stm32f4xx_rtc.c ****     RTC->CR |=  ((uint32_t)(RTC_InitStruct->RTC_HourFormat));
 228              		.loc 1 468 0
 229 013c 114B     		ldr	r3, .L15
 230 013e 114A     		ldr	r2, .L15
 231 0140 9168     		ldr	r1, [r2, #8]
 232 0142 7A68     		ldr	r2, [r7, #4]
 233 0144 1268     		ldr	r2, [r2, #0]
 234 0146 0A43     		orrs	r2, r2, r1
 235 0148 9A60     		str	r2, [r3, #8]
 469:../Libraries/STM32F4xx_StdPeriph_Driver/src/stm32f4xx_rtc.c ****   
 470:../Libraries/STM32F4xx_StdPeriph_Driver/src/stm32f4xx_rtc.c ****     /* Configure the RTC PRER */
 471:../Libraries/STM32F4xx_StdPeriph_Driver/src/stm32f4xx_rtc.c ****     RTC->PRER = (uint32_t)(RTC_InitStruct->RTC_SynchPrediv);
 236              		.loc 1 471 0
 237 014a 0E4B     		ldr	r3, .L15
 238 014c 7A68     		ldr	r2, [r7, #4]
 239 014e 9268     		ldr	r2, [r2, #8]
 240 0150 1A61     		str	r2, [r3, #16]
 472:../Libraries/STM32F4xx_StdPeriph_Driver/src/stm32f4xx_rtc.c ****     RTC->PRER |= (uint32_t)(RTC_InitStruct->RTC_AsynchPrediv << 16);
 241              		.loc 1 472 0
 242 0152 0C4B     		ldr	r3, .L15
 243 0154 0B4A     		ldr	r2, .L15
 244 0156 1169     		ldr	r1, [r2, #16]
 245 0158 7A68     		ldr	r2, [r7, #4]
 246 015a 5268     		ldr	r2, [r2, #4]
 247 015c 4FEA0242 		lsl	r2, r2, #16
 248 0160 0A43     		orrs	r2, r2, r1
 249 0162 1A61     		str	r2, [r3, #16]
 473:../Libraries/STM32F4xx_StdPeriph_Driver/src/stm32f4xx_rtc.c **** 
 474:../Libraries/STM32F4xx_StdPeriph_Driver/src/stm32f4xx_rtc.c ****     /* Exit Initialization mode */
 475:../Libraries/STM32F4xx_StdPeriph_Driver/src/stm32f4xx_rtc.c ****     RTC_ExitInitMode();
 250              		.loc 1 475 0
 251 0164 FFF7FEFF 		bl	RTC_ExitInitMode
 476:../Libraries/STM32F4xx_StdPeriph_Driver/src/stm32f4xx_rtc.c **** 
 477:../Libraries/STM32F4xx_StdPeriph_Driver/src/stm32f4xx_rtc.c ****     status = SUCCESS;    
 252              		.loc 1 477 0
 253 0168 4FF00103 		mov	r3, #1
 254 016c FB73     		strb	r3, [r7, #15]
 255              	.L13:
 478:../Libraries/STM32F4xx_StdPeriph_Driver/src/stm32f4xx_rtc.c ****   }
 479:../Libraries/STM32F4xx_StdPeriph_Driver/src/stm32f4xx_rtc.c ****   /* Enable the write protection for RTC registers */
 480:../Libraries/STM32F4xx_StdPeriph_Driver/src/stm32f4xx_rtc.c ****   RTC->WPR = 0xFF; 
 256              		.loc 1 480 0
 257 016e 054B     		ldr	r3, .L15
 258 0170 4FF0FF02 		mov	r2, #255
 259 0174 5A62     		str	r2, [r3, #36]
 481:../Libraries/STM32F4xx_StdPeriph_Driver/src/stm32f4xx_rtc.c ****   
 482:../Libraries/STM32F4xx_StdPeriph_Driver/src/stm32f4xx_rtc.c ****   return status;
 260              		.loc 1 482 0
 261 0176 FB7B     		ldrb	r3, [r7, #15]	@ zero_extendqisi2
 483:../Libraries/STM32F4xx_StdPeriph_Driver/src/stm32f4xx_rtc.c **** }
 262              		.loc 1 483 0
 263 0178 1846     		mov	r0, r3
 264 017a 07F11007 		add	r7, r7, #16
 265 017e BD46     		mov	sp, r7
 266 0180 80BD     		pop	{r7, pc}
 267              	.L16:
 268 0182 00BF     		.align	2
 269              	.L15:
 270 0184 00280040 		.word	1073752064
 271              		.cfi_endproc
 272              	.LFE111:
 274              		.align	2
 275              		.global	RTC_StructInit
 276              		.thumb
 277              		.thumb_func
 279              	RTC_StructInit:
 280              	.LFB112:
 484:../Libraries/STM32F4xx_StdPeriph_Driver/src/stm32f4xx_rtc.c **** 
 485:../Libraries/STM32F4xx_StdPeriph_Driver/src/stm32f4xx_rtc.c **** /**
 486:../Libraries/STM32F4xx_StdPeriph_Driver/src/stm32f4xx_rtc.c ****   * @brief  Fills each RTC_InitStruct member with its default value.
 487:../Libraries/STM32F4xx_StdPeriph_Driver/src/stm32f4xx_rtc.c ****   * @param  RTC_InitStruct: pointer to a RTC_InitTypeDef structure which will be 
 488:../Libraries/STM32F4xx_StdPeriph_Driver/src/stm32f4xx_rtc.c ****   *         initialized.
 489:../Libraries/STM32F4xx_StdPeriph_Driver/src/stm32f4xx_rtc.c ****   * @retval None
 490:../Libraries/STM32F4xx_StdPeriph_Driver/src/stm32f4xx_rtc.c ****   */
 491:../Libraries/STM32F4xx_StdPeriph_Driver/src/stm32f4xx_rtc.c **** void RTC_StructInit(RTC_InitTypeDef* RTC_InitStruct)
 492:../Libraries/STM32F4xx_StdPeriph_Driver/src/stm32f4xx_rtc.c **** {
 281              		.loc 1 492 0
 282              		.cfi_startproc
 283              		@ args = 0, pretend = 0, frame = 8
 284              		@ frame_needed = 1, uses_anonymous_args = 0
 285              		@ link register save eliminated.
 286 0188 80B4     		push	{r7}
 287              	.LCFI6:
 288              		.cfi_def_cfa_offset 4
 289              		.cfi_offset 7, -4
 290 018a 83B0     		sub	sp, sp, #12
 291              	.LCFI7:
 292              		.cfi_def_cfa_offset 16
 293 018c 00AF     		add	r7, sp, #0
 294              	.LCFI8:
 295              		.cfi_def_cfa_register 7
 296 018e 7860     		str	r0, [r7, #4]
 493:../Libraries/STM32F4xx_StdPeriph_Driver/src/stm32f4xx_rtc.c ****   /* Initialize the RTC_HourFormat member */
 494:../Libraries/STM32F4xx_StdPeriph_Driver/src/stm32f4xx_rtc.c ****   RTC_InitStruct->RTC_HourFormat = RTC_HourFormat_24;
 297              		.loc 1 494 0
 298 0190 7B68     		ldr	r3, [r7, #4]
 299 0192 4FF00002 		mov	r2, #0
 300 0196 1A60     		str	r2, [r3, #0]
 495:../Libraries/STM32F4xx_StdPeriph_Driver/src/stm32f4xx_rtc.c ****     
 496:../Libraries/STM32F4xx_StdPeriph_Driver/src/stm32f4xx_rtc.c ****   /* Initialize the RTC_AsynchPrediv member */
 497:../Libraries/STM32F4xx_StdPeriph_Driver/src/stm32f4xx_rtc.c ****   RTC_InitStruct->RTC_AsynchPrediv = (uint32_t)0x7F;
 301              		.loc 1 497 0
 302 0198 7B68     		ldr	r3, [r7, #4]
 303 019a 4FF07F02 		mov	r2, #127
 304 019e 5A60     		str	r2, [r3, #4]
 498:../Libraries/STM32F4xx_StdPeriph_Driver/src/stm32f4xx_rtc.c **** 
 499:../Libraries/STM32F4xx_StdPeriph_Driver/src/stm32f4xx_rtc.c ****   /* Initialize the RTC_SynchPrediv member */
 500:../Libraries/STM32F4xx_StdPeriph_Driver/src/stm32f4xx_rtc.c ****   RTC_InitStruct->RTC_SynchPrediv = (uint32_t)0xFF; 
 305              		.loc 1 500 0
 306 01a0 7B68     		ldr	r3, [r7, #4]
 307 01a2 4FF0FF02 		mov	r2, #255
 308 01a6 9A60     		str	r2, [r3, #8]
 501:../Libraries/STM32F4xx_StdPeriph_Driver/src/stm32f4xx_rtc.c **** }
 309              		.loc 1 501 0
 310 01a8 07F10C07 		add	r7, r7, #12
 311 01ac BD46     		mov	sp, r7
 312 01ae 80BC     		pop	{r7}
 313 01b0 7047     		bx	lr
 314              		.cfi_endproc
 315              	.LFE112:
 317 01b2 00BF     		.align	2
 318              		.global	RTC_WriteProtectionCmd
 319              		.thumb
 320              		.thumb_func
 322              	RTC_WriteProtectionCmd:
 323              	.LFB113:
 502:../Libraries/STM32F4xx_StdPeriph_Driver/src/stm32f4xx_rtc.c **** 
 503:../Libraries/STM32F4xx_StdPeriph_Driver/src/stm32f4xx_rtc.c **** /**
 504:../Libraries/STM32F4xx_StdPeriph_Driver/src/stm32f4xx_rtc.c ****   * @brief  Enables or disables the RTC registers write protection.
 505:../Libraries/STM32F4xx_StdPeriph_Driver/src/stm32f4xx_rtc.c ****   * @note   All the RTC registers are write protected except for RTC_ISR[13:8], 
 506:../Libraries/STM32F4xx_StdPeriph_Driver/src/stm32f4xx_rtc.c ****   *         RTC_TAFCR and RTC_BKPxR.
 507:../Libraries/STM32F4xx_StdPeriph_Driver/src/stm32f4xx_rtc.c ****   * @note   Writing a wrong key reactivates the write protection.
 508:../Libraries/STM32F4xx_StdPeriph_Driver/src/stm32f4xx_rtc.c ****   * @note   The protection mechanism is not affected by system reset.  
 509:../Libraries/STM32F4xx_StdPeriph_Driver/src/stm32f4xx_rtc.c ****   * @param  NewState: new state of the write protection.
 510:../Libraries/STM32F4xx_StdPeriph_Driver/src/stm32f4xx_rtc.c ****   *          This parameter can be: ENABLE or DISABLE.
 511:../Libraries/STM32F4xx_StdPeriph_Driver/src/stm32f4xx_rtc.c ****   * @retval None
 512:../Libraries/STM32F4xx_StdPeriph_Driver/src/stm32f4xx_rtc.c ****   */
 513:../Libraries/STM32F4xx_StdPeriph_Driver/src/stm32f4xx_rtc.c **** void RTC_WriteProtectionCmd(FunctionalState NewState)
 514:../Libraries/STM32F4xx_StdPeriph_Driver/src/stm32f4xx_rtc.c **** {
 324              		.loc 1 514 0
 325              		.cfi_startproc
 326              		@ args = 0, pretend = 0, frame = 8
 327              		@ frame_needed = 1, uses_anonymous_args = 0
 328              		@ link register save eliminated.
 329 01b4 80B4     		push	{r7}
 330              	.LCFI9:
 331              		.cfi_def_cfa_offset 4
 332              		.cfi_offset 7, -4
 333 01b6 83B0     		sub	sp, sp, #12
 334              	.LCFI10:
 335              		.cfi_def_cfa_offset 16
 336 01b8 00AF     		add	r7, sp, #0
 337              	.LCFI11:
 338              		.cfi_def_cfa_register 7
 339 01ba 0346     		mov	r3, r0
 340 01bc FB71     		strb	r3, [r7, #7]
 515:../Libraries/STM32F4xx_StdPeriph_Driver/src/stm32f4xx_rtc.c ****   /* Check the parameters */
 516:../Libraries/STM32F4xx_StdPeriph_Driver/src/stm32f4xx_rtc.c ****   assert_param(IS_FUNCTIONAL_STATE(NewState));
 517:../Libraries/STM32F4xx_StdPeriph_Driver/src/stm32f4xx_rtc.c ****     
 518:../Libraries/STM32F4xx_StdPeriph_Driver/src/stm32f4xx_rtc.c ****   if (NewState != DISABLE)
 341              		.loc 1 518 0
 342 01be FB79     		ldrb	r3, [r7, #7]	@ zero_extendqisi2
 343 01c0 002B     		cmp	r3, #0
 344 01c2 04D0     		beq	.L19
 519:../Libraries/STM32F4xx_StdPeriph_Driver/src/stm32f4xx_rtc.c ****   {
 520:../Libraries/STM32F4xx_StdPeriph_Driver/src/stm32f4xx_rtc.c ****     /* Enable the write protection for RTC registers */
 521:../Libraries/STM32F4xx_StdPeriph_Driver/src/stm32f4xx_rtc.c ****     RTC->WPR = 0xFF;   
 345              		.loc 1 521 0
 346 01c4 084B     		ldr	r3, .L21
 347 01c6 4FF0FF02 		mov	r2, #255
 348 01ca 5A62     		str	r2, [r3, #36]
 349 01cc 07E0     		b	.L18
 350              	.L19:
 522:../Libraries/STM32F4xx_StdPeriph_Driver/src/stm32f4xx_rtc.c ****   }
 523:../Libraries/STM32F4xx_StdPeriph_Driver/src/stm32f4xx_rtc.c ****   else
 524:../Libraries/STM32F4xx_StdPeriph_Driver/src/stm32f4xx_rtc.c ****   {
 525:../Libraries/STM32F4xx_StdPeriph_Driver/src/stm32f4xx_rtc.c ****     /* Disable the write protection for RTC registers */
 526:../Libraries/STM32F4xx_StdPeriph_Driver/src/stm32f4xx_rtc.c ****     RTC->WPR = 0xCA;
 351              		.loc 1 526 0
 352 01ce 064B     		ldr	r3, .L21
 353 01d0 4FF0CA02 		mov	r2, #202
 354 01d4 5A62     		str	r2, [r3, #36]
 527:../Libraries/STM32F4xx_StdPeriph_Driver/src/stm32f4xx_rtc.c ****     RTC->WPR = 0x53;    
 355              		.loc 1 527 0
 356 01d6 044B     		ldr	r3, .L21
 357 01d8 4FF05302 		mov	r2, #83
 358 01dc 5A62     		str	r2, [r3, #36]
 359              	.L18:
 528:../Libraries/STM32F4xx_StdPeriph_Driver/src/stm32f4xx_rtc.c ****   }
 529:../Libraries/STM32F4xx_StdPeriph_Driver/src/stm32f4xx_rtc.c **** }
 360              		.loc 1 529 0
 361 01de 07F10C07 		add	r7, r7, #12
 362 01e2 BD46     		mov	sp, r7
 363 01e4 80BC     		pop	{r7}
 364 01e6 7047     		bx	lr
 365              	.L22:
 366              		.align	2
 367              	.L21:
 368 01e8 00280040 		.word	1073752064
 369              		.cfi_endproc
 370              	.LFE113:
 372              		.align	2
 373              		.global	RTC_EnterInitMode
 374              		.thumb
 375              		.thumb_func
 377              	RTC_EnterInitMode:
 378              	.LFB114:
 530:../Libraries/STM32F4xx_StdPeriph_Driver/src/stm32f4xx_rtc.c **** 
 531:../Libraries/STM32F4xx_StdPeriph_Driver/src/stm32f4xx_rtc.c **** /**
 532:../Libraries/STM32F4xx_StdPeriph_Driver/src/stm32f4xx_rtc.c ****   * @brief  Enters the RTC Initialization mode.
 533:../Libraries/STM32F4xx_StdPeriph_Driver/src/stm32f4xx_rtc.c ****   * @note   The RTC Initialization mode is write protected, use the 
 534:../Libraries/STM32F4xx_StdPeriph_Driver/src/stm32f4xx_rtc.c ****   *         RTC_WriteProtectionCmd(DISABLE) before calling this function.    
 535:../Libraries/STM32F4xx_StdPeriph_Driver/src/stm32f4xx_rtc.c ****   * @param  None
 536:../Libraries/STM32F4xx_StdPeriph_Driver/src/stm32f4xx_rtc.c ****   * @retval An ErrorStatus enumeration value:
 537:../Libraries/STM32F4xx_StdPeriph_Driver/src/stm32f4xx_rtc.c ****   *          - SUCCESS: RTC is in Init mode
 538:../Libraries/STM32F4xx_StdPeriph_Driver/src/stm32f4xx_rtc.c ****   *          - ERROR: RTC is not in Init mode  
 539:../Libraries/STM32F4xx_StdPeriph_Driver/src/stm32f4xx_rtc.c ****   */
 540:../Libraries/STM32F4xx_StdPeriph_Driver/src/stm32f4xx_rtc.c **** ErrorStatus RTC_EnterInitMode(void)
 541:../Libraries/STM32F4xx_StdPeriph_Driver/src/stm32f4xx_rtc.c **** {
 379              		.loc 1 541 0
 380              		.cfi_startproc
 381              		@ args = 0, pretend = 0, frame = 16
 382              		@ frame_needed = 1, uses_anonymous_args = 0
 383              		@ link register save eliminated.
 384 01ec 80B4     		push	{r7}
 385              	.LCFI12:
 386              		.cfi_def_cfa_offset 4
 387              		.cfi_offset 7, -4
 388 01ee 85B0     		sub	sp, sp, #20
 389              	.LCFI13:
 390              		.cfi_def_cfa_offset 24
 391 01f0 00AF     		add	r7, sp, #0
 392              	.LCFI14:
 393              		.cfi_def_cfa_register 7
 542:../Libraries/STM32F4xx_StdPeriph_Driver/src/stm32f4xx_rtc.c ****   __IO uint32_t initcounter = 0x00;
 394              		.loc 1 542 0
 395 01f2 4FF00003 		mov	r3, #0
 396 01f6 7B60     		str	r3, [r7, #4]
 543:../Libraries/STM32F4xx_StdPeriph_Driver/src/stm32f4xx_rtc.c ****   ErrorStatus status = ERROR;
 397              		.loc 1 543 0
 398 01f8 4FF00003 		mov	r3, #0
 399 01fc FB73     		strb	r3, [r7, #15]
 544:../Libraries/STM32F4xx_StdPeriph_Driver/src/stm32f4xx_rtc.c ****   uint32_t initstatus = 0x00;
 400              		.loc 1 544 0
 401 01fe 4FF00003 		mov	r3, #0
 402 0202 BB60     		str	r3, [r7, #8]
 545:../Libraries/STM32F4xx_StdPeriph_Driver/src/stm32f4xx_rtc.c ****      
 546:../Libraries/STM32F4xx_StdPeriph_Driver/src/stm32f4xx_rtc.c ****   /* Check if the Initialization mode is set */
 547:../Libraries/STM32F4xx_StdPeriph_Driver/src/stm32f4xx_rtc.c ****   if ((RTC->ISR & RTC_ISR_INITF) == (uint32_t)RESET)
 403              		.loc 1 547 0
 404 0204 184B     		ldr	r3, .L30
 405 0206 DB68     		ldr	r3, [r3, #12]
 406 0208 03F04003 		and	r3, r3, #64
 407 020c 002B     		cmp	r3, #0
 408 020e 21D1     		bne	.L24
 548:../Libraries/STM32F4xx_StdPeriph_Driver/src/stm32f4xx_rtc.c ****   {
 549:../Libraries/STM32F4xx_StdPeriph_Driver/src/stm32f4xx_rtc.c ****     /* Set the Initialization mode */
 550:../Libraries/STM32F4xx_StdPeriph_Driver/src/stm32f4xx_rtc.c ****     RTC->ISR = (uint32_t)RTC_INIT_MASK;
 409              		.loc 1 550 0
 410 0210 154B     		ldr	r3, .L30
 411 0212 4FF0FF32 		mov	r2, #-1
 412 0216 DA60     		str	r2, [r3, #12]
 413              	.L26:
 551:../Libraries/STM32F4xx_StdPeriph_Driver/src/stm32f4xx_rtc.c ****     
 552:../Libraries/STM32F4xx_StdPeriph_Driver/src/stm32f4xx_rtc.c ****     /* Wait till RTC is in INIT state and if Time out is reached exit */
 553:../Libraries/STM32F4xx_StdPeriph_Driver/src/stm32f4xx_rtc.c ****     do
 554:../Libraries/STM32F4xx_StdPeriph_Driver/src/stm32f4xx_rtc.c ****     {
 555:../Libraries/STM32F4xx_StdPeriph_Driver/src/stm32f4xx_rtc.c ****       initstatus = RTC->ISR & RTC_ISR_INITF;
 414              		.loc 1 555 0 discriminator 1
 415 0218 134B     		ldr	r3, .L30
 416 021a DB68     		ldr	r3, [r3, #12]
 417 021c 03F04003 		and	r3, r3, #64
 418 0220 BB60     		str	r3, [r7, #8]
 556:../Libraries/STM32F4xx_StdPeriph_Driver/src/stm32f4xx_rtc.c ****       initcounter++;  
 419              		.loc 1 556 0 discriminator 1
 420 0222 7B68     		ldr	r3, [r7, #4]
 421 0224 03F10103 		add	r3, r3, #1
 422 0228 7B60     		str	r3, [r7, #4]
 557:../Libraries/STM32F4xx_StdPeriph_Driver/src/stm32f4xx_rtc.c ****     } while((initcounter != INITMODE_TIMEOUT) && (initstatus == 0x00));
 423              		.loc 1 557 0 discriminator 1
 424 022a 7B68     		ldr	r3, [r7, #4]
 425 022c B3F5803F 		cmp	r3, #65536
 426 0230 02D0     		beq	.L25
 427 0232 BB68     		ldr	r3, [r7, #8]
 428 0234 002B     		cmp	r3, #0
 429 0236 EFD0     		beq	.L26
 430              	.L25:
 558:../Libraries/STM32F4xx_StdPeriph_Driver/src/stm32f4xx_rtc.c ****     
 559:../Libraries/STM32F4xx_StdPeriph_Driver/src/stm32f4xx_rtc.c ****     if ((RTC->ISR & RTC_ISR_INITF) != RESET)
 431              		.loc 1 559 0
 432 0238 0B4B     		ldr	r3, .L30
 433 023a DB68     		ldr	r3, [r3, #12]
 434 023c 03F04003 		and	r3, r3, #64
 435 0240 002B     		cmp	r3, #0
 436 0242 03D0     		beq	.L27
 560:../Libraries/STM32F4xx_StdPeriph_Driver/src/stm32f4xx_rtc.c ****     {
 561:../Libraries/STM32F4xx_StdPeriph_Driver/src/stm32f4xx_rtc.c ****       status = SUCCESS;
 437              		.loc 1 561 0
 438 0244 4FF00103 		mov	r3, #1
 439 0248 FB73     		strb	r3, [r7, #15]
 440 024a 06E0     		b	.L28
 441              	.L27:
 562:../Libraries/STM32F4xx_StdPeriph_Driver/src/stm32f4xx_rtc.c ****     }
 563:../Libraries/STM32F4xx_StdPeriph_Driver/src/stm32f4xx_rtc.c ****     else
 564:../Libraries/STM32F4xx_StdPeriph_Driver/src/stm32f4xx_rtc.c ****     {
 565:../Libraries/STM32F4xx_StdPeriph_Driver/src/stm32f4xx_rtc.c ****       status = ERROR;
 442              		.loc 1 565 0
 443 024c 4FF00003 		mov	r3, #0
 444 0250 FB73     		strb	r3, [r7, #15]
 445 0252 02E0     		b	.L28
 446              	.L24:
 566:../Libraries/STM32F4xx_StdPeriph_Driver/src/stm32f4xx_rtc.c ****     }        
 567:../Libraries/STM32F4xx_StdPeriph_Driver/src/stm32f4xx_rtc.c ****   }
 568:../Libraries/STM32F4xx_StdPeriph_Driver/src/stm32f4xx_rtc.c ****   else
 569:../Libraries/STM32F4xx_StdPeriph_Driver/src/stm32f4xx_rtc.c ****   {
 570:../Libraries/STM32F4xx_StdPeriph_Driver/src/stm32f4xx_rtc.c ****     status = SUCCESS;  
 447              		.loc 1 570 0
 448 0254 4FF00103 		mov	r3, #1
 449 0258 FB73     		strb	r3, [r7, #15]
 450              	.L28:
 571:../Libraries/STM32F4xx_StdPeriph_Driver/src/stm32f4xx_rtc.c ****   } 
 572:../Libraries/STM32F4xx_StdPeriph_Driver/src/stm32f4xx_rtc.c ****     
 573:../Libraries/STM32F4xx_StdPeriph_Driver/src/stm32f4xx_rtc.c ****   return (status);  
 451              		.loc 1 573 0
 452 025a FB7B     		ldrb	r3, [r7, #15]	@ zero_extendqisi2
 574:../Libraries/STM32F4xx_StdPeriph_Driver/src/stm32f4xx_rtc.c **** }
 453              		.loc 1 574 0
 454 025c 1846     		mov	r0, r3
 455 025e 07F11407 		add	r7, r7, #20
 456 0262 BD46     		mov	sp, r7
 457 0264 80BC     		pop	{r7}
 458 0266 7047     		bx	lr
 459              	.L31:
 460              		.align	2
 461              	.L30:
 462 0268 00280040 		.word	1073752064
 463              		.cfi_endproc
 464              	.LFE114:
 466              		.align	2
 467              		.global	RTC_ExitInitMode
 468              		.thumb
 469              		.thumb_func
 471              	RTC_ExitInitMode:
 472              	.LFB115:
 575:../Libraries/STM32F4xx_StdPeriph_Driver/src/stm32f4xx_rtc.c **** 
 576:../Libraries/STM32F4xx_StdPeriph_Driver/src/stm32f4xx_rtc.c **** /**
 577:../Libraries/STM32F4xx_StdPeriph_Driver/src/stm32f4xx_rtc.c ****   * @brief  Exits the RTC Initialization mode.
 578:../Libraries/STM32F4xx_StdPeriph_Driver/src/stm32f4xx_rtc.c ****   * @note   When the initialization sequence is complete, the calendar restarts 
 579:../Libraries/STM32F4xx_StdPeriph_Driver/src/stm32f4xx_rtc.c ****   *         counting after 4 RTCCLK cycles.  
 580:../Libraries/STM32F4xx_StdPeriph_Driver/src/stm32f4xx_rtc.c ****   * @note   The RTC Initialization mode is write protected, use the 
 581:../Libraries/STM32F4xx_StdPeriph_Driver/src/stm32f4xx_rtc.c ****   *         RTC_WriteProtectionCmd(DISABLE) before calling this function.      
 582:../Libraries/STM32F4xx_StdPeriph_Driver/src/stm32f4xx_rtc.c ****   * @param  None
 583:../Libraries/STM32F4xx_StdPeriph_Driver/src/stm32f4xx_rtc.c ****   * @retval None
 584:../Libraries/STM32F4xx_StdPeriph_Driver/src/stm32f4xx_rtc.c ****   */
 585:../Libraries/STM32F4xx_StdPeriph_Driver/src/stm32f4xx_rtc.c **** void RTC_ExitInitMode(void)
 586:../Libraries/STM32F4xx_StdPeriph_Driver/src/stm32f4xx_rtc.c **** { 
 473              		.loc 1 586 0
 474              		.cfi_startproc
 475              		@ args = 0, pretend = 0, frame = 0
 476              		@ frame_needed = 1, uses_anonymous_args = 0
 477              		@ link register save eliminated.
 478 026c 80B4     		push	{r7}
 479              	.LCFI15:
 480              		.cfi_def_cfa_offset 4
 481              		.cfi_offset 7, -4
 482 026e 00AF     		add	r7, sp, #0
 483              	.LCFI16:
 484              		.cfi_def_cfa_register 7
 587:../Libraries/STM32F4xx_StdPeriph_Driver/src/stm32f4xx_rtc.c ****   /* Exit Initialization mode */
 588:../Libraries/STM32F4xx_StdPeriph_Driver/src/stm32f4xx_rtc.c ****   RTC->ISR &= (uint32_t)~RTC_ISR_INIT;  
 485              		.loc 1 588 0
 486 0270 044B     		ldr	r3, .L33
 487 0272 044A     		ldr	r2, .L33
 488 0274 D268     		ldr	r2, [r2, #12]
 489 0276 22F08002 		bic	r2, r2, #128
 490 027a DA60     		str	r2, [r3, #12]
 589:../Libraries/STM32F4xx_StdPeriph_Driver/src/stm32f4xx_rtc.c **** }
 491              		.loc 1 589 0
 492 027c BD46     		mov	sp, r7
 493 027e 80BC     		pop	{r7}
 494 0280 7047     		bx	lr
 495              	.L34:
 496 0282 00BF     		.align	2
 497              	.L33:
 498 0284 00280040 		.word	1073752064
 499              		.cfi_endproc
 500              	.LFE115:
 502              		.align	2
 503              		.global	RTC_WaitForSynchro
 504              		.thumb
 505              		.thumb_func
 507              	RTC_WaitForSynchro:
 508              	.LFB116:
 590:../Libraries/STM32F4xx_StdPeriph_Driver/src/stm32f4xx_rtc.c **** 
 591:../Libraries/STM32F4xx_StdPeriph_Driver/src/stm32f4xx_rtc.c **** /**
 592:../Libraries/STM32F4xx_StdPeriph_Driver/src/stm32f4xx_rtc.c ****   * @brief  Waits until the RTC Time and Date registers (RTC_TR and RTC_DR) are 
 593:../Libraries/STM32F4xx_StdPeriph_Driver/src/stm32f4xx_rtc.c ****   *         synchronized with RTC APB clock.
 594:../Libraries/STM32F4xx_StdPeriph_Driver/src/stm32f4xx_rtc.c ****   * @note   The RTC Resynchronization mode is write protected, use the 
 595:../Libraries/STM32F4xx_StdPeriph_Driver/src/stm32f4xx_rtc.c ****   *         RTC_WriteProtectionCmd(DISABLE) before calling this function. 
 596:../Libraries/STM32F4xx_StdPeriph_Driver/src/stm32f4xx_rtc.c ****   * @note   To read the calendar through the shadow registers after Calendar 
 597:../Libraries/STM32F4xx_StdPeriph_Driver/src/stm32f4xx_rtc.c ****   *         initialization, calendar update or after wakeup from low power modes 
 598:../Libraries/STM32F4xx_StdPeriph_Driver/src/stm32f4xx_rtc.c ****   *         the software must first clear the RSF flag. 
 599:../Libraries/STM32F4xx_StdPeriph_Driver/src/stm32f4xx_rtc.c ****   *         The software must then wait until it is set again before reading 
 600:../Libraries/STM32F4xx_StdPeriph_Driver/src/stm32f4xx_rtc.c ****   *         the calendar, which means that the calendar registers have been 
 601:../Libraries/STM32F4xx_StdPeriph_Driver/src/stm32f4xx_rtc.c ****   *         correctly copied into the RTC_TR and RTC_DR shadow registers.   
 602:../Libraries/STM32F4xx_StdPeriph_Driver/src/stm32f4xx_rtc.c ****   * @param  None
 603:../Libraries/STM32F4xx_StdPeriph_Driver/src/stm32f4xx_rtc.c ****   * @retval An ErrorStatus enumeration value:
 604:../Libraries/STM32F4xx_StdPeriph_Driver/src/stm32f4xx_rtc.c ****   *          - SUCCESS: RTC registers are synchronised
 605:../Libraries/STM32F4xx_StdPeriph_Driver/src/stm32f4xx_rtc.c ****   *          - ERROR: RTC registers are not synchronised
 606:../Libraries/STM32F4xx_StdPeriph_Driver/src/stm32f4xx_rtc.c ****   */
 607:../Libraries/STM32F4xx_StdPeriph_Driver/src/stm32f4xx_rtc.c **** ErrorStatus RTC_WaitForSynchro(void)
 608:../Libraries/STM32F4xx_StdPeriph_Driver/src/stm32f4xx_rtc.c **** {
 509              		.loc 1 608 0
 510              		.cfi_startproc
 511              		@ args = 0, pretend = 0, frame = 16
 512              		@ frame_needed = 1, uses_anonymous_args = 0
 513              		@ link register save eliminated.
 514 0288 80B4     		push	{r7}
 515              	.LCFI17:
 516              		.cfi_def_cfa_offset 4
 517              		.cfi_offset 7, -4
 518 028a 85B0     		sub	sp, sp, #20
 519              	.LCFI18:
 520              		.cfi_def_cfa_offset 24
 521 028c 00AF     		add	r7, sp, #0
 522              	.LCFI19:
 523              		.cfi_def_cfa_register 7
 609:../Libraries/STM32F4xx_StdPeriph_Driver/src/stm32f4xx_rtc.c ****   __IO uint32_t synchrocounter = 0;
 524              		.loc 1 609 0
 525 028e 4FF00003 		mov	r3, #0
 526 0292 7B60     		str	r3, [r7, #4]
 610:../Libraries/STM32F4xx_StdPeriph_Driver/src/stm32f4xx_rtc.c ****   ErrorStatus status = ERROR;
 527              		.loc 1 610 0
 528 0294 4FF00003 		mov	r3, #0
 529 0298 FB73     		strb	r3, [r7, #15]
 611:../Libraries/STM32F4xx_StdPeriph_Driver/src/stm32f4xx_rtc.c ****   uint32_t synchrostatus = 0x00;
 530              		.loc 1 611 0
 531 029a 4FF00003 		mov	r3, #0
 532 029e BB60     		str	r3, [r7, #8]
 612:../Libraries/STM32F4xx_StdPeriph_Driver/src/stm32f4xx_rtc.c **** 
 613:../Libraries/STM32F4xx_StdPeriph_Driver/src/stm32f4xx_rtc.c ****   /* Disable the write protection for RTC registers */
 614:../Libraries/STM32F4xx_StdPeriph_Driver/src/stm32f4xx_rtc.c ****   RTC->WPR = 0xCA;
 533              		.loc 1 614 0
 534 02a0 1A4B     		ldr	r3, .L41
 535 02a2 4FF0CA02 		mov	r2, #202
 536 02a6 5A62     		str	r2, [r3, #36]
 615:../Libraries/STM32F4xx_StdPeriph_Driver/src/stm32f4xx_rtc.c ****   RTC->WPR = 0x53;
 537              		.loc 1 615 0
 538 02a8 184B     		ldr	r3, .L41
 539 02aa 4FF05302 		mov	r2, #83
 540 02ae 5A62     		str	r2, [r3, #36]
 616:../Libraries/STM32F4xx_StdPeriph_Driver/src/stm32f4xx_rtc.c ****     
 617:../Libraries/STM32F4xx_StdPeriph_Driver/src/stm32f4xx_rtc.c ****   /* Clear RSF flag */
 618:../Libraries/STM32F4xx_StdPeriph_Driver/src/stm32f4xx_rtc.c ****   RTC->ISR &= (uint32_t)RTC_RSF_MASK;
 541              		.loc 1 618 0
 542 02b0 164B     		ldr	r3, .L41
 543 02b2 164A     		ldr	r2, .L41
 544 02b4 D268     		ldr	r2, [r2, #12]
 545 02b6 22F0A002 		bic	r2, r2, #160
 546 02ba DA60     		str	r2, [r3, #12]
 547              	.L37:
 619:../Libraries/STM32F4xx_StdPeriph_Driver/src/stm32f4xx_rtc.c ****     
 620:../Libraries/STM32F4xx_StdPeriph_Driver/src/stm32f4xx_rtc.c ****   /* Wait the registers to be synchronised */
 621:../Libraries/STM32F4xx_StdPeriph_Driver/src/stm32f4xx_rtc.c ****   do
 622:../Libraries/STM32F4xx_StdPeriph_Driver/src/stm32f4xx_rtc.c ****   {
 623:../Libraries/STM32F4xx_StdPeriph_Driver/src/stm32f4xx_rtc.c ****     synchrostatus = RTC->ISR & RTC_ISR_RSF;
 548              		.loc 1 623 0 discriminator 1
 549 02bc 134B     		ldr	r3, .L41
 550 02be DB68     		ldr	r3, [r3, #12]
 551 02c0 03F02003 		and	r3, r3, #32
 552 02c4 BB60     		str	r3, [r7, #8]
 624:../Libraries/STM32F4xx_StdPeriph_Driver/src/stm32f4xx_rtc.c ****     synchrocounter++;  
 553              		.loc 1 624 0 discriminator 1
 554 02c6 7B68     		ldr	r3, [r7, #4]
 555 02c8 03F10103 		add	r3, r3, #1
 556 02cc 7B60     		str	r3, [r7, #4]
 625:../Libraries/STM32F4xx_StdPeriph_Driver/src/stm32f4xx_rtc.c ****   } while((synchrocounter != SYNCHRO_TIMEOUT) && (synchrostatus == 0x00));
 557              		.loc 1 625 0 discriminator 1
 558 02ce 7B68     		ldr	r3, [r7, #4]
 559 02d0 B3F5003F 		cmp	r3, #131072
 560 02d4 02D0     		beq	.L36
 561 02d6 BB68     		ldr	r3, [r7, #8]
 562 02d8 002B     		cmp	r3, #0
 563 02da EFD0     		beq	.L37
 564              	.L36:
 626:../Libraries/STM32F4xx_StdPeriph_Driver/src/stm32f4xx_rtc.c ****     
 627:../Libraries/STM32F4xx_StdPeriph_Driver/src/stm32f4xx_rtc.c ****   if ((RTC->ISR & RTC_ISR_RSF) != RESET)
 565              		.loc 1 627 0
 566 02dc 0B4B     		ldr	r3, .L41
 567 02de DB68     		ldr	r3, [r3, #12]
 568 02e0 03F02003 		and	r3, r3, #32
 569 02e4 002B     		cmp	r3, #0
 570 02e6 03D0     		beq	.L38
 628:../Libraries/STM32F4xx_StdPeriph_Driver/src/stm32f4xx_rtc.c ****   {
 629:../Libraries/STM32F4xx_StdPeriph_Driver/src/stm32f4xx_rtc.c ****     status = SUCCESS;
 571              		.loc 1 629 0
 572 02e8 4FF00103 		mov	r3, #1
 573 02ec FB73     		strb	r3, [r7, #15]
 574 02ee 02E0     		b	.L39
 575              	.L38:
 630:../Libraries/STM32F4xx_StdPeriph_Driver/src/stm32f4xx_rtc.c ****   }
 631:../Libraries/STM32F4xx_StdPeriph_Driver/src/stm32f4xx_rtc.c ****   else
 632:../Libraries/STM32F4xx_StdPeriph_Driver/src/stm32f4xx_rtc.c ****   {
 633:../Libraries/STM32F4xx_StdPeriph_Driver/src/stm32f4xx_rtc.c ****     status = ERROR;
 576              		.loc 1 633 0
 577 02f0 4FF00003 		mov	r3, #0
 578 02f4 FB73     		strb	r3, [r7, #15]
 579              	.L39:
 634:../Libraries/STM32F4xx_StdPeriph_Driver/src/stm32f4xx_rtc.c ****   }        
 635:../Libraries/STM32F4xx_StdPeriph_Driver/src/stm32f4xx_rtc.c **** 
 636:../Libraries/STM32F4xx_StdPeriph_Driver/src/stm32f4xx_rtc.c ****   /* Enable the write protection for RTC registers */
 637:../Libraries/STM32F4xx_StdPeriph_Driver/src/stm32f4xx_rtc.c ****   RTC->WPR = 0xFF; 
 580              		.loc 1 637 0
 581 02f6 054B     		ldr	r3, .L41
 582 02f8 4FF0FF02 		mov	r2, #255
 583 02fc 5A62     		str	r2, [r3, #36]
 638:../Libraries/STM32F4xx_StdPeriph_Driver/src/stm32f4xx_rtc.c ****     
 639:../Libraries/STM32F4xx_StdPeriph_Driver/src/stm32f4xx_rtc.c ****   return (status); 
 584              		.loc 1 639 0
 585 02fe FB7B     		ldrb	r3, [r7, #15]	@ zero_extendqisi2
 640:../Libraries/STM32F4xx_StdPeriph_Driver/src/stm32f4xx_rtc.c **** }
 586              		.loc 1 640 0
 587 0300 1846     		mov	r0, r3
 588 0302 07F11407 		add	r7, r7, #20
 589 0306 BD46     		mov	sp, r7
 590 0308 80BC     		pop	{r7}
 591 030a 7047     		bx	lr
 592              	.L42:
 593              		.align	2
 594              	.L41:
 595 030c 00280040 		.word	1073752064
 596              		.cfi_endproc
 597              	.LFE116:
 599              		.align	2
 600              		.global	RTC_RefClockCmd
 601              		.thumb
 602              		.thumb_func
 604              	RTC_RefClockCmd:
 605              	.LFB117:
 641:../Libraries/STM32F4xx_StdPeriph_Driver/src/stm32f4xx_rtc.c **** 
 642:../Libraries/STM32F4xx_StdPeriph_Driver/src/stm32f4xx_rtc.c **** /**
 643:../Libraries/STM32F4xx_StdPeriph_Driver/src/stm32f4xx_rtc.c ****   * @brief  Enables or disables the RTC reference clock detection.
 644:../Libraries/STM32F4xx_StdPeriph_Driver/src/stm32f4xx_rtc.c ****   * @param  NewState: new state of the RTC reference clock.
 645:../Libraries/STM32F4xx_StdPeriph_Driver/src/stm32f4xx_rtc.c ****   *          This parameter can be: ENABLE or DISABLE.
 646:../Libraries/STM32F4xx_StdPeriph_Driver/src/stm32f4xx_rtc.c ****   * @retval An ErrorStatus enumeration value:
 647:../Libraries/STM32F4xx_StdPeriph_Driver/src/stm32f4xx_rtc.c ****   *          - SUCCESS: RTC reference clock detection is enabled
 648:../Libraries/STM32F4xx_StdPeriph_Driver/src/stm32f4xx_rtc.c ****   *          - ERROR: RTC reference clock detection is disabled  
 649:../Libraries/STM32F4xx_StdPeriph_Driver/src/stm32f4xx_rtc.c ****   */
 650:../Libraries/STM32F4xx_StdPeriph_Driver/src/stm32f4xx_rtc.c **** ErrorStatus RTC_RefClockCmd(FunctionalState NewState)
 651:../Libraries/STM32F4xx_StdPeriph_Driver/src/stm32f4xx_rtc.c **** { 
 606              		.loc 1 651 0
 607              		.cfi_startproc
 608              		@ args = 0, pretend = 0, frame = 16
 609              		@ frame_needed = 1, uses_anonymous_args = 0
 610 0310 80B5     		push	{r7, lr}
 611              	.LCFI20:
 612              		.cfi_def_cfa_offset 8
 613              		.cfi_offset 7, -8
 614              		.cfi_offset 14, -4
 615 0312 84B0     		sub	sp, sp, #16
 616              	.LCFI21:
 617              		.cfi_def_cfa_offset 24
 618 0314 00AF     		add	r7, sp, #0
 619              	.LCFI22:
 620              		.cfi_def_cfa_register 7
 621 0316 0346     		mov	r3, r0
 622 0318 FB71     		strb	r3, [r7, #7]
 652:../Libraries/STM32F4xx_StdPeriph_Driver/src/stm32f4xx_rtc.c ****   ErrorStatus status = ERROR;
 623              		.loc 1 652 0
 624 031a 4FF00003 		mov	r3, #0
 625 031e FB73     		strb	r3, [r7, #15]
 653:../Libraries/STM32F4xx_StdPeriph_Driver/src/stm32f4xx_rtc.c ****   
 654:../Libraries/STM32F4xx_StdPeriph_Driver/src/stm32f4xx_rtc.c ****   /* Check the parameters */
 655:../Libraries/STM32F4xx_StdPeriph_Driver/src/stm32f4xx_rtc.c ****   assert_param(IS_FUNCTIONAL_STATE(NewState));
 656:../Libraries/STM32F4xx_StdPeriph_Driver/src/stm32f4xx_rtc.c ****   
 657:../Libraries/STM32F4xx_StdPeriph_Driver/src/stm32f4xx_rtc.c ****   /* Disable the write protection for RTC registers */
 658:../Libraries/STM32F4xx_StdPeriph_Driver/src/stm32f4xx_rtc.c ****   RTC->WPR = 0xCA;
 626              		.loc 1 658 0
 627 0320 174B     		ldr	r3, .L49
 628 0322 4FF0CA02 		mov	r2, #202
 629 0326 5A62     		str	r2, [r3, #36]
 659:../Libraries/STM32F4xx_StdPeriph_Driver/src/stm32f4xx_rtc.c ****   RTC->WPR = 0x53;
 630              		.loc 1 659 0
 631 0328 154B     		ldr	r3, .L49
 632 032a 4FF05302 		mov	r2, #83
 633 032e 5A62     		str	r2, [r3, #36]
 660:../Libraries/STM32F4xx_StdPeriph_Driver/src/stm32f4xx_rtc.c ****     
 661:../Libraries/STM32F4xx_StdPeriph_Driver/src/stm32f4xx_rtc.c ****   /* Set Initialization mode */
 662:../Libraries/STM32F4xx_StdPeriph_Driver/src/stm32f4xx_rtc.c ****   if (RTC_EnterInitMode() == ERROR)
 634              		.loc 1 662 0
 635 0330 FFF7FEFF 		bl	RTC_EnterInitMode
 636 0334 0346     		mov	r3, r0
 637 0336 002B     		cmp	r3, #0
 638 0338 03D1     		bne	.L44
 663:../Libraries/STM32F4xx_StdPeriph_Driver/src/stm32f4xx_rtc.c ****   {
 664:../Libraries/STM32F4xx_StdPeriph_Driver/src/stm32f4xx_rtc.c ****     status = ERROR;
 639              		.loc 1 664 0
 640 033a 4FF00003 		mov	r3, #0
 641 033e FB73     		strb	r3, [r7, #15]
 642 0340 14E0     		b	.L45
 643              	.L44:
 665:../Libraries/STM32F4xx_StdPeriph_Driver/src/stm32f4xx_rtc.c ****   } 
 666:../Libraries/STM32F4xx_StdPeriph_Driver/src/stm32f4xx_rtc.c ****   else
 667:../Libraries/STM32F4xx_StdPeriph_Driver/src/stm32f4xx_rtc.c ****   {  
 668:../Libraries/STM32F4xx_StdPeriph_Driver/src/stm32f4xx_rtc.c ****     if (NewState != DISABLE)
 644              		.loc 1 668 0
 645 0342 FB79     		ldrb	r3, [r7, #7]	@ zero_extendqisi2
 646 0344 002B     		cmp	r3, #0
 647 0346 06D0     		beq	.L46
 669:../Libraries/STM32F4xx_StdPeriph_Driver/src/stm32f4xx_rtc.c ****     {
 670:../Libraries/STM32F4xx_StdPeriph_Driver/src/stm32f4xx_rtc.c ****       /* Enable the RTC reference clock detection */
 671:../Libraries/STM32F4xx_StdPeriph_Driver/src/stm32f4xx_rtc.c ****       RTC->CR |= RTC_CR_REFCKON;   
 648              		.loc 1 671 0
 649 0348 0D4B     		ldr	r3, .L49
 650 034a 0D4A     		ldr	r2, .L49
 651 034c 9268     		ldr	r2, [r2, #8]
 652 034e 42F01002 		orr	r2, r2, #16
 653 0352 9A60     		str	r2, [r3, #8]
 654 0354 05E0     		b	.L47
 655              	.L46:
 672:../Libraries/STM32F4xx_StdPeriph_Driver/src/stm32f4xx_rtc.c ****     }
 673:../Libraries/STM32F4xx_StdPeriph_Driver/src/stm32f4xx_rtc.c ****     else
 674:../Libraries/STM32F4xx_StdPeriph_Driver/src/stm32f4xx_rtc.c ****     {
 675:../Libraries/STM32F4xx_StdPeriph_Driver/src/stm32f4xx_rtc.c ****       /* Disable the RTC reference clock detection */
 676:../Libraries/STM32F4xx_StdPeriph_Driver/src/stm32f4xx_rtc.c ****       RTC->CR &= ~RTC_CR_REFCKON;    
 656              		.loc 1 676 0
 657 0356 0A4B     		ldr	r3, .L49
 658 0358 094A     		ldr	r2, .L49
 659 035a 9268     		ldr	r2, [r2, #8]
 660 035c 22F01002 		bic	r2, r2, #16
 661 0360 9A60     		str	r2, [r3, #8]
 662              	.L47:
 677:../Libraries/STM32F4xx_StdPeriph_Driver/src/stm32f4xx_rtc.c ****     }
 678:../Libraries/STM32F4xx_StdPeriph_Driver/src/stm32f4xx_rtc.c ****     /* Exit Initialization mode */
 679:../Libraries/STM32F4xx_StdPeriph_Driver/src/stm32f4xx_rtc.c ****     RTC_ExitInitMode();
 663              		.loc 1 679 0
 664 0362 FFF7FEFF 		bl	RTC_ExitInitMode
 680:../Libraries/STM32F4xx_StdPeriph_Driver/src/stm32f4xx_rtc.c ****     
 681:../Libraries/STM32F4xx_StdPeriph_Driver/src/stm32f4xx_rtc.c ****     status = SUCCESS;
 665              		.loc 1 681 0
 666 0366 4FF00103 		mov	r3, #1
 667 036a FB73     		strb	r3, [r7, #15]
 668              	.L45:
 682:../Libraries/STM32F4xx_StdPeriph_Driver/src/stm32f4xx_rtc.c ****   }
 683:../Libraries/STM32F4xx_StdPeriph_Driver/src/stm32f4xx_rtc.c ****   
 684:../Libraries/STM32F4xx_StdPeriph_Driver/src/stm32f4xx_rtc.c ****   /* Enable the write protection for RTC registers */
 685:../Libraries/STM32F4xx_StdPeriph_Driver/src/stm32f4xx_rtc.c ****   RTC->WPR = 0xFF;  
 669              		.loc 1 685 0
 670 036c 044B     		ldr	r3, .L49
 671 036e 4FF0FF02 		mov	r2, #255
 672 0372 5A62     		str	r2, [r3, #36]
 686:../Libraries/STM32F4xx_StdPeriph_Driver/src/stm32f4xx_rtc.c ****   
 687:../Libraries/STM32F4xx_StdPeriph_Driver/src/stm32f4xx_rtc.c ****   return status; 
 673              		.loc 1 687 0
 674 0374 FB7B     		ldrb	r3, [r7, #15]	@ zero_extendqisi2
 688:../Libraries/STM32F4xx_StdPeriph_Driver/src/stm32f4xx_rtc.c **** }
 675              		.loc 1 688 0
 676 0376 1846     		mov	r0, r3
 677 0378 07F11007 		add	r7, r7, #16
 678 037c BD46     		mov	sp, r7
 679 037e 80BD     		pop	{r7, pc}
 680              	.L50:
 681              		.align	2
 682              	.L49:
 683 0380 00280040 		.word	1073752064
 684              		.cfi_endproc
 685              	.LFE117:
 687              		.align	2
 688              		.global	RTC_BypassShadowCmd
 689              		.thumb
 690              		.thumb_func
 692              	RTC_BypassShadowCmd:
 693              	.LFB118:
 689:../Libraries/STM32F4xx_StdPeriph_Driver/src/stm32f4xx_rtc.c **** 
 690:../Libraries/STM32F4xx_StdPeriph_Driver/src/stm32f4xx_rtc.c **** /**
 691:../Libraries/STM32F4xx_StdPeriph_Driver/src/stm32f4xx_rtc.c ****   * @brief  Enables or Disables the Bypass Shadow feature.
 692:../Libraries/STM32F4xx_StdPeriph_Driver/src/stm32f4xx_rtc.c ****   * @note   When the Bypass Shadow is enabled the calendar value are taken 
 693:../Libraries/STM32F4xx_StdPeriph_Driver/src/stm32f4xx_rtc.c ****   *         directly from the Calendar counter.
 694:../Libraries/STM32F4xx_StdPeriph_Driver/src/stm32f4xx_rtc.c ****   * @param  NewState: new state of the Bypass Shadow feature.
 695:../Libraries/STM32F4xx_StdPeriph_Driver/src/stm32f4xx_rtc.c ****   *         This parameter can be: ENABLE or DISABLE.
 696:../Libraries/STM32F4xx_StdPeriph_Driver/src/stm32f4xx_rtc.c ****   * @retval None
 697:../Libraries/STM32F4xx_StdPeriph_Driver/src/stm32f4xx_rtc.c **** */
 698:../Libraries/STM32F4xx_StdPeriph_Driver/src/stm32f4xx_rtc.c **** void RTC_BypassShadowCmd(FunctionalState NewState)
 699:../Libraries/STM32F4xx_StdPeriph_Driver/src/stm32f4xx_rtc.c **** {
 694              		.loc 1 699 0
 695              		.cfi_startproc
 696              		@ args = 0, pretend = 0, frame = 8
 697              		@ frame_needed = 1, uses_anonymous_args = 0
 698              		@ link register save eliminated.
 699 0384 80B4     		push	{r7}
 700              	.LCFI23:
 701              		.cfi_def_cfa_offset 4
 702              		.cfi_offset 7, -4
 703 0386 83B0     		sub	sp, sp, #12
 704              	.LCFI24:
 705              		.cfi_def_cfa_offset 16
 706 0388 00AF     		add	r7, sp, #0
 707              	.LCFI25:
 708              		.cfi_def_cfa_register 7
 709 038a 0346     		mov	r3, r0
 710 038c FB71     		strb	r3, [r7, #7]
 700:../Libraries/STM32F4xx_StdPeriph_Driver/src/stm32f4xx_rtc.c ****   /* Check the parameters */
 701:../Libraries/STM32F4xx_StdPeriph_Driver/src/stm32f4xx_rtc.c ****   assert_param(IS_FUNCTIONAL_STATE(NewState));
 702:../Libraries/STM32F4xx_StdPeriph_Driver/src/stm32f4xx_rtc.c **** 
 703:../Libraries/STM32F4xx_StdPeriph_Driver/src/stm32f4xx_rtc.c ****   /* Disable the write protection for RTC registers */
 704:../Libraries/STM32F4xx_StdPeriph_Driver/src/stm32f4xx_rtc.c ****   RTC->WPR = 0xCA;
 711              		.loc 1 704 0
 712 038e 104B     		ldr	r3, .L54
 713 0390 4FF0CA02 		mov	r2, #202
 714 0394 5A62     		str	r2, [r3, #36]
 705:../Libraries/STM32F4xx_StdPeriph_Driver/src/stm32f4xx_rtc.c ****   RTC->WPR = 0x53;
 715              		.loc 1 705 0
 716 0396 0E4B     		ldr	r3, .L54
 717 0398 4FF05302 		mov	r2, #83
 718 039c 5A62     		str	r2, [r3, #36]
 706:../Libraries/STM32F4xx_StdPeriph_Driver/src/stm32f4xx_rtc.c ****   
 707:../Libraries/STM32F4xx_StdPeriph_Driver/src/stm32f4xx_rtc.c ****   if (NewState != DISABLE)
 719              		.loc 1 707 0
 720 039e FB79     		ldrb	r3, [r7, #7]	@ zero_extendqisi2
 721 03a0 002B     		cmp	r3, #0
 722 03a2 06D0     		beq	.L52
 708:../Libraries/STM32F4xx_StdPeriph_Driver/src/stm32f4xx_rtc.c ****   {
 709:../Libraries/STM32F4xx_StdPeriph_Driver/src/stm32f4xx_rtc.c ****     /* Set the BYPSHAD bit */
 710:../Libraries/STM32F4xx_StdPeriph_Driver/src/stm32f4xx_rtc.c ****     RTC->CR |= (uint8_t)RTC_CR_BYPSHAD;
 723              		.loc 1 710 0
 724 03a4 0A4B     		ldr	r3, .L54
 725 03a6 0A4A     		ldr	r2, .L54
 726 03a8 9268     		ldr	r2, [r2, #8]
 727 03aa 42F02002 		orr	r2, r2, #32
 728 03ae 9A60     		str	r2, [r3, #8]
 729 03b0 05E0     		b	.L53
 730              	.L52:
 711:../Libraries/STM32F4xx_StdPeriph_Driver/src/stm32f4xx_rtc.c ****   }
 712:../Libraries/STM32F4xx_StdPeriph_Driver/src/stm32f4xx_rtc.c ****   else
 713:../Libraries/STM32F4xx_StdPeriph_Driver/src/stm32f4xx_rtc.c ****   {
 714:../Libraries/STM32F4xx_StdPeriph_Driver/src/stm32f4xx_rtc.c ****     /* Reset the BYPSHAD bit */
 715:../Libraries/STM32F4xx_StdPeriph_Driver/src/stm32f4xx_rtc.c ****     RTC->CR &= (uint8_t)~RTC_CR_BYPSHAD;
 731              		.loc 1 715 0
 732 03b2 074B     		ldr	r3, .L54
 733 03b4 064A     		ldr	r2, .L54
 734 03b6 9268     		ldr	r2, [r2, #8]
 735 03b8 02F0DF02 		and	r2, r2, #223
 736 03bc 9A60     		str	r2, [r3, #8]
 737              	.L53:
 716:../Libraries/STM32F4xx_StdPeriph_Driver/src/stm32f4xx_rtc.c ****   }
 717:../Libraries/STM32F4xx_StdPeriph_Driver/src/stm32f4xx_rtc.c **** 
 718:../Libraries/STM32F4xx_StdPeriph_Driver/src/stm32f4xx_rtc.c ****   /* Enable the write protection for RTC registers */
 719:../Libraries/STM32F4xx_StdPeriph_Driver/src/stm32f4xx_rtc.c ****   RTC->WPR = 0xFF;
 738              		.loc 1 719 0
 739 03be 044B     		ldr	r3, .L54
 740 03c0 4FF0FF02 		mov	r2, #255
 741 03c4 5A62     		str	r2, [r3, #36]
 720:../Libraries/STM32F4xx_StdPeriph_Driver/src/stm32f4xx_rtc.c **** }
 742              		.loc 1 720 0
 743 03c6 07F10C07 		add	r7, r7, #12
 744 03ca BD46     		mov	sp, r7
 745 03cc 80BC     		pop	{r7}
 746 03ce 7047     		bx	lr
 747              	.L55:
 748              		.align	2
 749              	.L54:
 750 03d0 00280040 		.word	1073752064
 751              		.cfi_endproc
 752              	.LFE118:
 754              		.align	2
 755              		.global	RTC_SetTime
 756              		.thumb
 757              		.thumb_func
 759              	RTC_SetTime:
 760              	.LFB119:
 721:../Libraries/STM32F4xx_StdPeriph_Driver/src/stm32f4xx_rtc.c **** 
 722:../Libraries/STM32F4xx_StdPeriph_Driver/src/stm32f4xx_rtc.c **** /**
 723:../Libraries/STM32F4xx_StdPeriph_Driver/src/stm32f4xx_rtc.c ****   * @}
 724:../Libraries/STM32F4xx_StdPeriph_Driver/src/stm32f4xx_rtc.c ****   */
 725:../Libraries/STM32F4xx_StdPeriph_Driver/src/stm32f4xx_rtc.c **** 
 726:../Libraries/STM32F4xx_StdPeriph_Driver/src/stm32f4xx_rtc.c **** /** @defgroup RTC_Group2 Time and Date configuration functions
 727:../Libraries/STM32F4xx_StdPeriph_Driver/src/stm32f4xx_rtc.c ****  *  @brief   Time and Date configuration functions 
 728:../Libraries/STM32F4xx_StdPeriph_Driver/src/stm32f4xx_rtc.c ****  *
 729:../Libraries/STM32F4xx_StdPeriph_Driver/src/stm32f4xx_rtc.c **** @verbatim   
 730:../Libraries/STM32F4xx_StdPeriph_Driver/src/stm32f4xx_rtc.c ****  ===============================================================================
 731:../Libraries/STM32F4xx_StdPeriph_Driver/src/stm32f4xx_rtc.c ****                    Time and Date configuration functions
 732:../Libraries/STM32F4xx_StdPeriph_Driver/src/stm32f4xx_rtc.c ****  ===============================================================================  
 733:../Libraries/STM32F4xx_StdPeriph_Driver/src/stm32f4xx_rtc.c **** 
 734:../Libraries/STM32F4xx_StdPeriph_Driver/src/stm32f4xx_rtc.c ****   This section provide functions allowing to program and read the RTC Calendar
 735:../Libraries/STM32F4xx_StdPeriph_Driver/src/stm32f4xx_rtc.c ****   (Time and Date).
 736:../Libraries/STM32F4xx_StdPeriph_Driver/src/stm32f4xx_rtc.c **** 
 737:../Libraries/STM32F4xx_StdPeriph_Driver/src/stm32f4xx_rtc.c **** @endverbatim
 738:../Libraries/STM32F4xx_StdPeriph_Driver/src/stm32f4xx_rtc.c ****   * @{
 739:../Libraries/STM32F4xx_StdPeriph_Driver/src/stm32f4xx_rtc.c ****   */
 740:../Libraries/STM32F4xx_StdPeriph_Driver/src/stm32f4xx_rtc.c **** 
 741:../Libraries/STM32F4xx_StdPeriph_Driver/src/stm32f4xx_rtc.c **** /**
 742:../Libraries/STM32F4xx_StdPeriph_Driver/src/stm32f4xx_rtc.c ****   * @brief  Set the RTC current time.
 743:../Libraries/STM32F4xx_StdPeriph_Driver/src/stm32f4xx_rtc.c ****   * @param  RTC_Format: specifies the format of the entered parameters.
 744:../Libraries/STM32F4xx_StdPeriph_Driver/src/stm32f4xx_rtc.c ****   *          This parameter can be  one of the following values:
 745:../Libraries/STM32F4xx_StdPeriph_Driver/src/stm32f4xx_rtc.c ****   *            @arg RTC_Format_BIN:  Binary data format 
 746:../Libraries/STM32F4xx_StdPeriph_Driver/src/stm32f4xx_rtc.c ****   *            @arg RTC_Format_BCD:  BCD data format
 747:../Libraries/STM32F4xx_StdPeriph_Driver/src/stm32f4xx_rtc.c ****   * @param  RTC_TimeStruct: pointer to a RTC_TimeTypeDef structure that contains 
 748:../Libraries/STM32F4xx_StdPeriph_Driver/src/stm32f4xx_rtc.c ****   *                        the time configuration information for the RTC.     
 749:../Libraries/STM32F4xx_StdPeriph_Driver/src/stm32f4xx_rtc.c ****   * @retval An ErrorStatus enumeration value:
 750:../Libraries/STM32F4xx_StdPeriph_Driver/src/stm32f4xx_rtc.c ****   *          - SUCCESS: RTC Time register is configured
 751:../Libraries/STM32F4xx_StdPeriph_Driver/src/stm32f4xx_rtc.c ****   *          - ERROR: RTC Time register is not configured
 752:../Libraries/STM32F4xx_StdPeriph_Driver/src/stm32f4xx_rtc.c ****   */
 753:../Libraries/STM32F4xx_StdPeriph_Driver/src/stm32f4xx_rtc.c **** ErrorStatus RTC_SetTime(uint32_t RTC_Format, RTC_TimeTypeDef* RTC_TimeStruct)
 754:../Libraries/STM32F4xx_StdPeriph_Driver/src/stm32f4xx_rtc.c **** {
 761              		.loc 1 754 0
 762              		.cfi_startproc
 763              		@ args = 0, pretend = 0, frame = 16
 764              		@ frame_needed = 1, uses_anonymous_args = 0
 765 03d4 90B5     		push	{r4, r7, lr}
 766              	.LCFI26:
 767              		.cfi_def_cfa_offset 12
 768              		.cfi_offset 4, -12
 769              		.cfi_offset 7, -8
 770              		.cfi_offset 14, -4
 771 03d6 85B0     		sub	sp, sp, #20
 772              	.LCFI27:
 773              		.cfi_def_cfa_offset 32
 774 03d8 00AF     		add	r7, sp, #0
 775              	.LCFI28:
 776              		.cfi_def_cfa_register 7
 777 03da 7860     		str	r0, [r7, #4]
 778 03dc 3960     		str	r1, [r7, #0]
 755:../Libraries/STM32F4xx_StdPeriph_Driver/src/stm32f4xx_rtc.c ****   uint32_t tmpreg = 0;
 779              		.loc 1 755 0
 780 03de 4FF00003 		mov	r3, #0
 781 03e2 FB60     		str	r3, [r7, #12]
 756:../Libraries/STM32F4xx_StdPeriph_Driver/src/stm32f4xx_rtc.c ****   ErrorStatus status = ERROR;
 782              		.loc 1 756 0
 783 03e4 4FF00003 		mov	r3, #0
 784 03e8 FB72     		strb	r3, [r7, #11]
 757:../Libraries/STM32F4xx_StdPeriph_Driver/src/stm32f4xx_rtc.c ****     
 758:../Libraries/STM32F4xx_StdPeriph_Driver/src/stm32f4xx_rtc.c ****   /* Check the parameters */
 759:../Libraries/STM32F4xx_StdPeriph_Driver/src/stm32f4xx_rtc.c ****   assert_param(IS_RTC_FORMAT(RTC_Format));
 760:../Libraries/STM32F4xx_StdPeriph_Driver/src/stm32f4xx_rtc.c ****   
 761:../Libraries/STM32F4xx_StdPeriph_Driver/src/stm32f4xx_rtc.c ****   if (RTC_Format == RTC_Format_BIN)
 785              		.loc 1 761 0
 786 03ea 7B68     		ldr	r3, [r7, #4]
 787 03ec 002B     		cmp	r3, #0
 788 03ee 0AD1     		bne	.L57
 762:../Libraries/STM32F4xx_StdPeriph_Driver/src/stm32f4xx_rtc.c ****   {
 763:../Libraries/STM32F4xx_StdPeriph_Driver/src/stm32f4xx_rtc.c ****     if ((RTC->CR & RTC_CR_FMT) != (uint32_t)RESET)
 789              		.loc 1 763 0
 790 03f0 404B     		ldr	r3, .L66
 791 03f2 9B68     		ldr	r3, [r3, #8]
 792 03f4 03F04003 		and	r3, r3, #64
 793 03f8 002B     		cmp	r3, #0
 794 03fa 16D1     		bne	.L58
 764:../Libraries/STM32F4xx_StdPeriph_Driver/src/stm32f4xx_rtc.c ****     {
 765:../Libraries/STM32F4xx_StdPeriph_Driver/src/stm32f4xx_rtc.c ****       assert_param(IS_RTC_HOUR12(RTC_TimeStruct->RTC_Hours));
 766:../Libraries/STM32F4xx_StdPeriph_Driver/src/stm32f4xx_rtc.c ****       assert_param(IS_RTC_H12(RTC_TimeStruct->RTC_H12));
 767:../Libraries/STM32F4xx_StdPeriph_Driver/src/stm32f4xx_rtc.c ****     } 
 768:../Libraries/STM32F4xx_StdPeriph_Driver/src/stm32f4xx_rtc.c ****     else
 769:../Libraries/STM32F4xx_StdPeriph_Driver/src/stm32f4xx_rtc.c ****     {
 770:../Libraries/STM32F4xx_StdPeriph_Driver/src/stm32f4xx_rtc.c ****       RTC_TimeStruct->RTC_H12 = 0x00;
 795              		.loc 1 770 0
 796 03fc 3B68     		ldr	r3, [r7, #0]
 797 03fe 4FF00002 		mov	r2, #0
 798 0402 DA70     		strb	r2, [r3, #3]
 799 0404 11E0     		b	.L58
 800              	.L57:
 771:../Libraries/STM32F4xx_StdPeriph_Driver/src/stm32f4xx_rtc.c ****       assert_param(IS_RTC_HOUR24(RTC_TimeStruct->RTC_Hours));
 772:../Libraries/STM32F4xx_StdPeriph_Driver/src/stm32f4xx_rtc.c ****     }
 773:../Libraries/STM32F4xx_StdPeriph_Driver/src/stm32f4xx_rtc.c ****     assert_param(IS_RTC_MINUTES(RTC_TimeStruct->RTC_Minutes));
 774:../Libraries/STM32F4xx_StdPeriph_Driver/src/stm32f4xx_rtc.c ****     assert_param(IS_RTC_SECONDS(RTC_TimeStruct->RTC_Seconds));
 775:../Libraries/STM32F4xx_StdPeriph_Driver/src/stm32f4xx_rtc.c ****   }
 776:../Libraries/STM32F4xx_StdPeriph_Driver/src/stm32f4xx_rtc.c ****   else
 777:../Libraries/STM32F4xx_StdPeriph_Driver/src/stm32f4xx_rtc.c ****   {
 778:../Libraries/STM32F4xx_StdPeriph_Driver/src/stm32f4xx_rtc.c ****     if ((RTC->CR & RTC_CR_FMT) != (uint32_t)RESET)
 801              		.loc 1 778 0
 802 0406 3B4B     		ldr	r3, .L66
 803 0408 9B68     		ldr	r3, [r3, #8]
 804 040a 03F04003 		and	r3, r3, #64
 805 040e 002B     		cmp	r3, #0
 806 0410 07D0     		beq	.L59
 779:../Libraries/STM32F4xx_StdPeriph_Driver/src/stm32f4xx_rtc.c ****     {
 780:../Libraries/STM32F4xx_StdPeriph_Driver/src/stm32f4xx_rtc.c ****       tmpreg = RTC_Bcd2ToByte(RTC_TimeStruct->RTC_Hours);
 807              		.loc 1 780 0
 808 0412 3B68     		ldr	r3, [r7, #0]
 809 0414 1B78     		ldrb	r3, [r3, #0]	@ zero_extendqisi2
 810 0416 1846     		mov	r0, r3
 811 0418 01F044F9 		bl	RTC_Bcd2ToByte
 812 041c 0346     		mov	r3, r0
 813 041e FB60     		str	r3, [r7, #12]
 814 0420 03E0     		b	.L58
 815              	.L59:
 781:../Libraries/STM32F4xx_StdPeriph_Driver/src/stm32f4xx_rtc.c ****       assert_param(IS_RTC_HOUR12(tmpreg));
 782:../Libraries/STM32F4xx_StdPeriph_Driver/src/stm32f4xx_rtc.c ****       assert_param(IS_RTC_H12(RTC_TimeStruct->RTC_H12)); 
 783:../Libraries/STM32F4xx_StdPeriph_Driver/src/stm32f4xx_rtc.c ****     } 
 784:../Libraries/STM32F4xx_StdPeriph_Driver/src/stm32f4xx_rtc.c ****     else
 785:../Libraries/STM32F4xx_StdPeriph_Driver/src/stm32f4xx_rtc.c ****     {
 786:../Libraries/STM32F4xx_StdPeriph_Driver/src/stm32f4xx_rtc.c ****       RTC_TimeStruct->RTC_H12 = 0x00;
 816              		.loc 1 786 0
 817 0422 3B68     		ldr	r3, [r7, #0]
 818 0424 4FF00002 		mov	r2, #0
 819 0428 DA70     		strb	r2, [r3, #3]
 820              	.L58:
 787:../Libraries/STM32F4xx_StdPeriph_Driver/src/stm32f4xx_rtc.c ****       assert_param(IS_RTC_HOUR24(RTC_Bcd2ToByte(RTC_TimeStruct->RTC_Hours)));
 788:../Libraries/STM32F4xx_StdPeriph_Driver/src/stm32f4xx_rtc.c ****     }
 789:../Libraries/STM32F4xx_StdPeriph_Driver/src/stm32f4xx_rtc.c ****     assert_param(IS_RTC_MINUTES(RTC_Bcd2ToByte(RTC_TimeStruct->RTC_Minutes)));
 790:../Libraries/STM32F4xx_StdPeriph_Driver/src/stm32f4xx_rtc.c ****     assert_param(IS_RTC_SECONDS(RTC_Bcd2ToByte(RTC_TimeStruct->RTC_Seconds)));
 791:../Libraries/STM32F4xx_StdPeriph_Driver/src/stm32f4xx_rtc.c ****   }
 792:../Libraries/STM32F4xx_StdPeriph_Driver/src/stm32f4xx_rtc.c ****   
 793:../Libraries/STM32F4xx_StdPeriph_Driver/src/stm32f4xx_rtc.c ****   /* Check the input parameters format */
 794:../Libraries/STM32F4xx_StdPeriph_Driver/src/stm32f4xx_rtc.c ****   if (RTC_Format != RTC_Format_BIN)
 821              		.loc 1 794 0
 822 042a 7B68     		ldr	r3, [r7, #4]
 823 042c 002B     		cmp	r3, #0
 824 042e 12D0     		beq	.L60
 795:../Libraries/STM32F4xx_StdPeriph_Driver/src/stm32f4xx_rtc.c ****   {
 796:../Libraries/STM32F4xx_StdPeriph_Driver/src/stm32f4xx_rtc.c ****     tmpreg = (((uint32_t)(RTC_TimeStruct->RTC_Hours) << 16) | \
 825              		.loc 1 796 0
 826 0430 3B68     		ldr	r3, [r7, #0]
 827 0432 1B78     		ldrb	r3, [r3, #0]	@ zero_extendqisi2
 828 0434 4FEA0342 		lsl	r2, r3, #16
 797:../Libraries/STM32F4xx_StdPeriph_Driver/src/stm32f4xx_rtc.c ****              ((uint32_t)(RTC_TimeStruct->RTC_Minutes) << 8) | \
 829              		.loc 1 797 0
 830 0438 3B68     		ldr	r3, [r7, #0]
 831 043a 5B78     		ldrb	r3, [r3, #1]	@ zero_extendqisi2
 832 043c 4FEA0323 		lsl	r3, r3, #8
 796:../Libraries/STM32F4xx_StdPeriph_Driver/src/stm32f4xx_rtc.c ****     tmpreg = (((uint32_t)(RTC_TimeStruct->RTC_Hours) << 16) | \
 833              		.loc 1 796 0
 834 0440 1A43     		orrs	r2, r2, r3
 798:../Libraries/STM32F4xx_StdPeriph_Driver/src/stm32f4xx_rtc.c ****              ((uint32_t)RTC_TimeStruct->RTC_Seconds) | \
 835              		.loc 1 798 0
 836 0442 3B68     		ldr	r3, [r7, #0]
 837 0444 9B78     		ldrb	r3, [r3, #2]	@ zero_extendqisi2
 797:../Libraries/STM32F4xx_StdPeriph_Driver/src/stm32f4xx_rtc.c ****              ((uint32_t)(RTC_TimeStruct->RTC_Minutes) << 8) | \
 838              		.loc 1 797 0
 839 0446 1A43     		orrs	r2, r2, r3
 799:../Libraries/STM32F4xx_StdPeriph_Driver/src/stm32f4xx_rtc.c ****              ((uint32_t)(RTC_TimeStruct->RTC_H12) << 16)); 
 840              		.loc 1 799 0
 841 0448 3B68     		ldr	r3, [r7, #0]
 842 044a DB78     		ldrb	r3, [r3, #3]	@ zero_extendqisi2
 843 044c 4FEA0343 		lsl	r3, r3, #16
 796:../Libraries/STM32F4xx_StdPeriph_Driver/src/stm32f4xx_rtc.c ****     tmpreg = (((uint32_t)(RTC_TimeStruct->RTC_Hours) << 16) | \
 844              		.loc 1 796 0
 845 0450 1343     		orrs	r3, r3, r2
 846 0452 FB60     		str	r3, [r7, #12]
 847 0454 1EE0     		b	.L61
 848              	.L60:
 800:../Libraries/STM32F4xx_StdPeriph_Driver/src/stm32f4xx_rtc.c ****   }  
 801:../Libraries/STM32F4xx_StdPeriph_Driver/src/stm32f4xx_rtc.c ****   else
 802:../Libraries/STM32F4xx_StdPeriph_Driver/src/stm32f4xx_rtc.c ****   {
 803:../Libraries/STM32F4xx_StdPeriph_Driver/src/stm32f4xx_rtc.c ****     tmpreg = (uint32_t)(((uint32_t)RTC_ByteToBcd2(RTC_TimeStruct->RTC_Hours) << 16) | \
 849              		.loc 1 803 0
 850 0456 3B68     		ldr	r3, [r7, #0]
 851 0458 1B78     		ldrb	r3, [r3, #0]	@ zero_extendqisi2
 852 045a 1846     		mov	r0, r3
 853 045c 01F000F9 		bl	RTC_ByteToBcd2
 854 0460 0346     		mov	r3, r0
 855 0462 4FEA0344 		lsl	r4, r3, #16
 804:../Libraries/STM32F4xx_StdPeriph_Driver/src/stm32f4xx_rtc.c ****                    ((uint32_t)RTC_ByteToBcd2(RTC_TimeStruct->RTC_Minutes) << 8) | \
 856              		.loc 1 804 0
 857 0466 3B68     		ldr	r3, [r7, #0]
 858 0468 5B78     		ldrb	r3, [r3, #1]	@ zero_extendqisi2
 859 046a 1846     		mov	r0, r3
 860 046c 01F0F8F8 		bl	RTC_ByteToBcd2
 861 0470 0346     		mov	r3, r0
 862 0472 4FEA0323 		lsl	r3, r3, #8
 803:../Libraries/STM32F4xx_StdPeriph_Driver/src/stm32f4xx_rtc.c ****     tmpreg = (uint32_t)(((uint32_t)RTC_ByteToBcd2(RTC_TimeStruct->RTC_Hours) << 16) | \
 863              		.loc 1 803 0
 864 0476 1C43     		orrs	r4, r4, r3
 805:../Libraries/STM32F4xx_StdPeriph_Driver/src/stm32f4xx_rtc.c ****                    ((uint32_t)RTC_ByteToBcd2(RTC_TimeStruct->RTC_Seconds)) | \
 865              		.loc 1 805 0
 866 0478 3B68     		ldr	r3, [r7, #0]
 867 047a 9B78     		ldrb	r3, [r3, #2]	@ zero_extendqisi2
 868 047c 1846     		mov	r0, r3
 869 047e 01F0EFF8 		bl	RTC_ByteToBcd2
 870 0482 0346     		mov	r3, r0
 804:../Libraries/STM32F4xx_StdPeriph_Driver/src/stm32f4xx_rtc.c ****                    ((uint32_t)RTC_ByteToBcd2(RTC_TimeStruct->RTC_Minutes) << 8) | \
 871              		.loc 1 804 0
 872 0484 44EA0302 		orr	r2, r4, r3
 806:../Libraries/STM32F4xx_StdPeriph_Driver/src/stm32f4xx_rtc.c ****                    (((uint32_t)RTC_TimeStruct->RTC_H12) << 16));
 873              		.loc 1 806 0
 874 0488 3B68     		ldr	r3, [r7, #0]
 875 048a DB78     		ldrb	r3, [r3, #3]	@ zero_extendqisi2
 876 048c 4FEA0343 		lsl	r3, r3, #16
 803:../Libraries/STM32F4xx_StdPeriph_Driver/src/stm32f4xx_rtc.c ****     tmpreg = (uint32_t)(((uint32_t)RTC_ByteToBcd2(RTC_TimeStruct->RTC_Hours) << 16) | \
 877              		.loc 1 803 0
 878 0490 1343     		orrs	r3, r3, r2
 879 0492 FB60     		str	r3, [r7, #12]
 880              	.L61:
 807:../Libraries/STM32F4xx_StdPeriph_Driver/src/stm32f4xx_rtc.c ****   }  
 808:../Libraries/STM32F4xx_StdPeriph_Driver/src/stm32f4xx_rtc.c **** 
 809:../Libraries/STM32F4xx_StdPeriph_Driver/src/stm32f4xx_rtc.c ****   /* Disable the write protection for RTC registers */
 810:../Libraries/STM32F4xx_StdPeriph_Driver/src/stm32f4xx_rtc.c ****   RTC->WPR = 0xCA;
 881              		.loc 1 810 0
 882 0494 174B     		ldr	r3, .L66
 883 0496 4FF0CA02 		mov	r2, #202
 884 049a 5A62     		str	r2, [r3, #36]
 811:../Libraries/STM32F4xx_StdPeriph_Driver/src/stm32f4xx_rtc.c ****   RTC->WPR = 0x53;
 885              		.loc 1 811 0
 886 049c 154B     		ldr	r3, .L66
 887 049e 4FF05302 		mov	r2, #83
 888 04a2 5A62     		str	r2, [r3, #36]
 812:../Libraries/STM32F4xx_StdPeriph_Driver/src/stm32f4xx_rtc.c **** 
 813:../Libraries/STM32F4xx_StdPeriph_Driver/src/stm32f4xx_rtc.c ****   /* Set Initialization mode */
 814:../Libraries/STM32F4xx_StdPeriph_Driver/src/stm32f4xx_rtc.c ****   if (RTC_EnterInitMode() == ERROR)
 889              		.loc 1 814 0
 890 04a4 FFF7FEFF 		bl	RTC_EnterInitMode
 891 04a8 0346     		mov	r3, r0
 892 04aa 002B     		cmp	r3, #0
 893 04ac 03D1     		bne	.L62
 815:../Libraries/STM32F4xx_StdPeriph_Driver/src/stm32f4xx_rtc.c ****   {
 816:../Libraries/STM32F4xx_StdPeriph_Driver/src/stm32f4xx_rtc.c ****     status = ERROR;
 894              		.loc 1 816 0
 895 04ae 4FF00003 		mov	r3, #0
 896 04b2 FB72     		strb	r3, [r7, #11]
 897 04b4 14E0     		b	.L63
 898              	.L62:
 817:../Libraries/STM32F4xx_StdPeriph_Driver/src/stm32f4xx_rtc.c ****   } 
 818:../Libraries/STM32F4xx_StdPeriph_Driver/src/stm32f4xx_rtc.c ****   else
 819:../Libraries/STM32F4xx_StdPeriph_Driver/src/stm32f4xx_rtc.c ****   {
 820:../Libraries/STM32F4xx_StdPeriph_Driver/src/stm32f4xx_rtc.c ****     /* Set the RTC_TR register */
 821:../Libraries/STM32F4xx_StdPeriph_Driver/src/stm32f4xx_rtc.c ****     RTC->TR = (uint32_t)(tmpreg & RTC_TR_RESERVED_MASK);
 899              		.loc 1 821 0
 900 04b6 0F4A     		ldr	r2, .L66
 901 04b8 FB68     		ldr	r3, [r7, #12]
 902 04ba 03F07F33 		and	r3, r3, #2139062143
 903 04be 23F0FE43 		bic	r3, r3, #2130706432
 904 04c2 1360     		str	r3, [r2, #0]
 822:../Libraries/STM32F4xx_StdPeriph_Driver/src/stm32f4xx_rtc.c **** 
 823:../Libraries/STM32F4xx_StdPeriph_Driver/src/stm32f4xx_rtc.c ****     /* Exit Initialization mode */
 824:../Libraries/STM32F4xx_StdPeriph_Driver/src/stm32f4xx_rtc.c ****     RTC_ExitInitMode(); 
 905              		.loc 1 824 0
 906 04c4 FFF7FEFF 		bl	RTC_ExitInitMode
 825:../Libraries/STM32F4xx_StdPeriph_Driver/src/stm32f4xx_rtc.c **** 
 826:../Libraries/STM32F4xx_StdPeriph_Driver/src/stm32f4xx_rtc.c ****     if(RTC_WaitForSynchro() == ERROR)
 907              		.loc 1 826 0
 908 04c8 FFF7FEFF 		bl	RTC_WaitForSynchro
 909 04cc 0346     		mov	r3, r0
 910 04ce 002B     		cmp	r3, #0
 911 04d0 03D1     		bne	.L64
 827:../Libraries/STM32F4xx_StdPeriph_Driver/src/stm32f4xx_rtc.c ****     {
 828:../Libraries/STM32F4xx_StdPeriph_Driver/src/stm32f4xx_rtc.c ****       status = ERROR;
 912              		.loc 1 828 0
 913 04d2 4FF00003 		mov	r3, #0
 914 04d6 FB72     		strb	r3, [r7, #11]
 915 04d8 02E0     		b	.L63
 916              	.L64:
 829:../Libraries/STM32F4xx_StdPeriph_Driver/src/stm32f4xx_rtc.c ****     }
 830:../Libraries/STM32F4xx_StdPeriph_Driver/src/stm32f4xx_rtc.c ****     else
 831:../Libraries/STM32F4xx_StdPeriph_Driver/src/stm32f4xx_rtc.c ****     {
 832:../Libraries/STM32F4xx_StdPeriph_Driver/src/stm32f4xx_rtc.c ****       status = SUCCESS;
 917              		.loc 1 832 0
 918 04da 4FF00103 		mov	r3, #1
 919 04de FB72     		strb	r3, [r7, #11]
 920              	.L63:
 833:../Libraries/STM32F4xx_StdPeriph_Driver/src/stm32f4xx_rtc.c ****     }
 834:../Libraries/STM32F4xx_StdPeriph_Driver/src/stm32f4xx_rtc.c ****   
 835:../Libraries/STM32F4xx_StdPeriph_Driver/src/stm32f4xx_rtc.c ****   }
 836:../Libraries/STM32F4xx_StdPeriph_Driver/src/stm32f4xx_rtc.c ****   /* Enable the write protection for RTC registers */
 837:../Libraries/STM32F4xx_StdPeriph_Driver/src/stm32f4xx_rtc.c ****   RTC->WPR = 0xFF; 
 921              		.loc 1 837 0
 922 04e0 044B     		ldr	r3, .L66
 923 04e2 4FF0FF02 		mov	r2, #255
 924 04e6 5A62     		str	r2, [r3, #36]
 838:../Libraries/STM32F4xx_StdPeriph_Driver/src/stm32f4xx_rtc.c ****     
 839:../Libraries/STM32F4xx_StdPeriph_Driver/src/stm32f4xx_rtc.c ****   return status;
 925              		.loc 1 839 0
 926 04e8 FB7A     		ldrb	r3, [r7, #11]	@ zero_extendqisi2
 840:../Libraries/STM32F4xx_StdPeriph_Driver/src/stm32f4xx_rtc.c **** }
 927              		.loc 1 840 0
 928 04ea 1846     		mov	r0, r3
 929 04ec 07F11407 		add	r7, r7, #20
 930 04f0 BD46     		mov	sp, r7
 931 04f2 90BD     		pop	{r4, r7, pc}
 932              	.L67:
 933              		.align	2
 934              	.L66:
 935 04f4 00280040 		.word	1073752064
 936              		.cfi_endproc
 937              	.LFE119:
 939              		.align	2
 940              		.global	RTC_TimeStructInit
 941              		.thumb
 942              		.thumb_func
 944              	RTC_TimeStructInit:
 945              	.LFB120:
 841:../Libraries/STM32F4xx_StdPeriph_Driver/src/stm32f4xx_rtc.c **** 
 842:../Libraries/STM32F4xx_StdPeriph_Driver/src/stm32f4xx_rtc.c **** /**
 843:../Libraries/STM32F4xx_StdPeriph_Driver/src/stm32f4xx_rtc.c ****   * @brief  Fills each RTC_TimeStruct member with its default value
 844:../Libraries/STM32F4xx_StdPeriph_Driver/src/stm32f4xx_rtc.c ****   *         (Time = 00h:00min:00sec).
 845:../Libraries/STM32F4xx_StdPeriph_Driver/src/stm32f4xx_rtc.c ****   * @param  RTC_TimeStruct: pointer to a RTC_TimeTypeDef structure which will be 
 846:../Libraries/STM32F4xx_StdPeriph_Driver/src/stm32f4xx_rtc.c ****   *         initialized.
 847:../Libraries/STM32F4xx_StdPeriph_Driver/src/stm32f4xx_rtc.c ****   * @retval None
 848:../Libraries/STM32F4xx_StdPeriph_Driver/src/stm32f4xx_rtc.c ****   */
 849:../Libraries/STM32F4xx_StdPeriph_Driver/src/stm32f4xx_rtc.c **** void RTC_TimeStructInit(RTC_TimeTypeDef* RTC_TimeStruct)
 850:../Libraries/STM32F4xx_StdPeriph_Driver/src/stm32f4xx_rtc.c **** {
 946              		.loc 1 850 0
 947              		.cfi_startproc
 948              		@ args = 0, pretend = 0, frame = 8
 949              		@ frame_needed = 1, uses_anonymous_args = 0
 950              		@ link register save eliminated.
 951 04f8 80B4     		push	{r7}
 952              	.LCFI29:
 953              		.cfi_def_cfa_offset 4
 954              		.cfi_offset 7, -4
 955 04fa 83B0     		sub	sp, sp, #12
 956              	.LCFI30:
 957              		.cfi_def_cfa_offset 16
 958 04fc 00AF     		add	r7, sp, #0
 959              	.LCFI31:
 960              		.cfi_def_cfa_register 7
 961 04fe 7860     		str	r0, [r7, #4]
 851:../Libraries/STM32F4xx_StdPeriph_Driver/src/stm32f4xx_rtc.c ****   /* Time = 00h:00min:00sec */
 852:../Libraries/STM32F4xx_StdPeriph_Driver/src/stm32f4xx_rtc.c ****   RTC_TimeStruct->RTC_H12 = RTC_H12_AM;
 962              		.loc 1 852 0
 963 0500 7B68     		ldr	r3, [r7, #4]
 964 0502 4FF00002 		mov	r2, #0
 965 0506 DA70     		strb	r2, [r3, #3]
 853:../Libraries/STM32F4xx_StdPeriph_Driver/src/stm32f4xx_rtc.c ****   RTC_TimeStruct->RTC_Hours = 0;
 966              		.loc 1 853 0
 967 0508 7B68     		ldr	r3, [r7, #4]
 968 050a 4FF00002 		mov	r2, #0
 969 050e 1A70     		strb	r2, [r3, #0]
 854:../Libraries/STM32F4xx_StdPeriph_Driver/src/stm32f4xx_rtc.c ****   RTC_TimeStruct->RTC_Minutes = 0;
 970              		.loc 1 854 0
 971 0510 7B68     		ldr	r3, [r7, #4]
 972 0512 4FF00002 		mov	r2, #0
 973 0516 5A70     		strb	r2, [r3, #1]
 855:../Libraries/STM32F4xx_StdPeriph_Driver/src/stm32f4xx_rtc.c ****   RTC_TimeStruct->RTC_Seconds = 0; 
 974              		.loc 1 855 0
 975 0518 7B68     		ldr	r3, [r7, #4]
 976 051a 4FF00002 		mov	r2, #0
 977 051e 9A70     		strb	r2, [r3, #2]
 856:../Libraries/STM32F4xx_StdPeriph_Driver/src/stm32f4xx_rtc.c **** }
 978              		.loc 1 856 0
 979 0520 07F10C07 		add	r7, r7, #12
 980 0524 BD46     		mov	sp, r7
 981 0526 80BC     		pop	{r7}
 982 0528 7047     		bx	lr
 983              		.cfi_endproc
 984              	.LFE120:
 986 052a 00BF     		.align	2
 987              		.global	RTC_GetTime
 988              		.thumb
 989              		.thumb_func
 991              	RTC_GetTime:
 992              	.LFB121:
 857:../Libraries/STM32F4xx_StdPeriph_Driver/src/stm32f4xx_rtc.c **** 
 858:../Libraries/STM32F4xx_StdPeriph_Driver/src/stm32f4xx_rtc.c **** /**
 859:../Libraries/STM32F4xx_StdPeriph_Driver/src/stm32f4xx_rtc.c ****   * @brief  Get the RTC current Time.
 860:../Libraries/STM32F4xx_StdPeriph_Driver/src/stm32f4xx_rtc.c ****   * @param  RTC_Format: specifies the format of the returned parameters.
 861:../Libraries/STM32F4xx_StdPeriph_Driver/src/stm32f4xx_rtc.c ****   *          This parameter can be  one of the following values:
 862:../Libraries/STM32F4xx_StdPeriph_Driver/src/stm32f4xx_rtc.c ****   *            @arg RTC_Format_BIN:  Binary data format 
 863:../Libraries/STM32F4xx_StdPeriph_Driver/src/stm32f4xx_rtc.c ****   *            @arg RTC_Format_BCD:  BCD data format
 864:../Libraries/STM32F4xx_StdPeriph_Driver/src/stm32f4xx_rtc.c ****   * @param  RTC_TimeStruct: pointer to a RTC_TimeTypeDef structure that will 
 865:../Libraries/STM32F4xx_StdPeriph_Driver/src/stm32f4xx_rtc.c ****   *                        contain the returned current time configuration.     
 866:../Libraries/STM32F4xx_StdPeriph_Driver/src/stm32f4xx_rtc.c ****   * @retval None
 867:../Libraries/STM32F4xx_StdPeriph_Driver/src/stm32f4xx_rtc.c ****   */
 868:../Libraries/STM32F4xx_StdPeriph_Driver/src/stm32f4xx_rtc.c **** void RTC_GetTime(uint32_t RTC_Format, RTC_TimeTypeDef* RTC_TimeStruct)
 869:../Libraries/STM32F4xx_StdPeriph_Driver/src/stm32f4xx_rtc.c **** {
 993              		.loc 1 869 0
 994              		.cfi_startproc
 995              		@ args = 0, pretend = 0, frame = 16
 996              		@ frame_needed = 1, uses_anonymous_args = 0
 997 052c 80B5     		push	{r7, lr}
 998              	.LCFI32:
 999              		.cfi_def_cfa_offset 8
 1000              		.cfi_offset 7, -8
 1001              		.cfi_offset 14, -4
 1002 052e 84B0     		sub	sp, sp, #16
 1003              	.LCFI33:
 1004              		.cfi_def_cfa_offset 24
 1005 0530 00AF     		add	r7, sp, #0
 1006              	.LCFI34:
 1007              		.cfi_def_cfa_register 7
 1008 0532 7860     		str	r0, [r7, #4]
 1009 0534 3960     		str	r1, [r7, #0]
 870:../Libraries/STM32F4xx_StdPeriph_Driver/src/stm32f4xx_rtc.c ****   uint32_t tmpreg = 0;
 1010              		.loc 1 870 0
 1011 0536 4FF00003 		mov	r3, #0
 1012 053a FB60     		str	r3, [r7, #12]
 871:../Libraries/STM32F4xx_StdPeriph_Driver/src/stm32f4xx_rtc.c **** 
 872:../Libraries/STM32F4xx_StdPeriph_Driver/src/stm32f4xx_rtc.c ****   /* Check the parameters */
 873:../Libraries/STM32F4xx_StdPeriph_Driver/src/stm32f4xx_rtc.c ****   assert_param(IS_RTC_FORMAT(RTC_Format));
 874:../Libraries/STM32F4xx_StdPeriph_Driver/src/stm32f4xx_rtc.c **** 
 875:../Libraries/STM32F4xx_StdPeriph_Driver/src/stm32f4xx_rtc.c ****   /* Get the RTC_TR register */
 876:../Libraries/STM32F4xx_StdPeriph_Driver/src/stm32f4xx_rtc.c ****   tmpreg = (uint32_t)(RTC->TR & RTC_TR_RESERVED_MASK); 
 1013              		.loc 1 876 0
 1014 053c 234B     		ldr	r3, .L71
 1015 053e 1B68     		ldr	r3, [r3, #0]
 1016 0540 03F07F33 		and	r3, r3, #2139062143
 1017 0544 23F0FE43 		bic	r3, r3, #2130706432
 1018 0548 FB60     		str	r3, [r7, #12]
 877:../Libraries/STM32F4xx_StdPeriph_Driver/src/stm32f4xx_rtc.c ****   
 878:../Libraries/STM32F4xx_StdPeriph_Driver/src/stm32f4xx_rtc.c ****   /* Fill the structure fields with the read parameters */
 879:../Libraries/STM32F4xx_StdPeriph_Driver/src/stm32f4xx_rtc.c ****   RTC_TimeStruct->RTC_Hours = (uint8_t)((tmpreg & (RTC_TR_HT | RTC_TR_HU)) >> 16);
 1019              		.loc 1 879 0
 1020 054a FB68     		ldr	r3, [r7, #12]
 1021 054c 03F47C13 		and	r3, r3, #4128768
 1022 0550 4FEA1343 		lsr	r3, r3, #16
 1023 0554 DAB2     		uxtb	r2, r3
 1024 0556 3B68     		ldr	r3, [r7, #0]
 1025 0558 1A70     		strb	r2, [r3, #0]
 880:../Libraries/STM32F4xx_StdPeriph_Driver/src/stm32f4xx_rtc.c ****   RTC_TimeStruct->RTC_Minutes = (uint8_t)((tmpreg & (RTC_TR_MNT | RTC_TR_MNU)) >>8);
 1026              		.loc 1 880 0
 1027 055a FB68     		ldr	r3, [r7, #12]
 1028 055c 03F4FE43 		and	r3, r3, #32512
 1029 0560 4FEA1323 		lsr	r3, r3, #8
 1030 0564 DAB2     		uxtb	r2, r3
 1031 0566 3B68     		ldr	r3, [r7, #0]
 1032 0568 5A70     		strb	r2, [r3, #1]
 881:../Libraries/STM32F4xx_StdPeriph_Driver/src/stm32f4xx_rtc.c ****   RTC_TimeStruct->RTC_Seconds = (uint8_t)(tmpreg & (RTC_TR_ST | RTC_TR_SU));
 1033              		.loc 1 881 0
 1034 056a FB68     		ldr	r3, [r7, #12]
 1035 056c DBB2     		uxtb	r3, r3
 1036 056e 03F07F03 		and	r3, r3, #127
 1037 0572 DAB2     		uxtb	r2, r3
 1038 0574 3B68     		ldr	r3, [r7, #0]
 1039 0576 9A70     		strb	r2, [r3, #2]
 882:../Libraries/STM32F4xx_StdPeriph_Driver/src/stm32f4xx_rtc.c ****   RTC_TimeStruct->RTC_H12 = (uint8_t)((tmpreg & (RTC_TR_PM)) >> 16);  
 1040              		.loc 1 882 0
 1041 0578 FB68     		ldr	r3, [r7, #12]
 1042 057a 03F48003 		and	r3, r3, #4194304
 1043 057e 4FEA1343 		lsr	r3, r3, #16
 1044 0582 DAB2     		uxtb	r2, r3
 1045 0584 3B68     		ldr	r3, [r7, #0]
 1046 0586 DA70     		strb	r2, [r3, #3]
 883:../Libraries/STM32F4xx_StdPeriph_Driver/src/stm32f4xx_rtc.c **** 
 884:../Libraries/STM32F4xx_StdPeriph_Driver/src/stm32f4xx_rtc.c ****   /* Check the input parameters format */
 885:../Libraries/STM32F4xx_StdPeriph_Driver/src/stm32f4xx_rtc.c ****   if (RTC_Format == RTC_Format_BIN)
 1047              		.loc 1 885 0
 1048 0588 7B68     		ldr	r3, [r7, #4]
 1049 058a 002B     		cmp	r3, #0
 1050 058c 1AD1     		bne	.L69
 886:../Libraries/STM32F4xx_StdPeriph_Driver/src/stm32f4xx_rtc.c ****   {
 887:../Libraries/STM32F4xx_StdPeriph_Driver/src/stm32f4xx_rtc.c ****     /* Convert the structure parameters to Binary format */
 888:../Libraries/STM32F4xx_StdPeriph_Driver/src/stm32f4xx_rtc.c ****     RTC_TimeStruct->RTC_Hours = (uint8_t)RTC_Bcd2ToByte(RTC_TimeStruct->RTC_Hours);
 1051              		.loc 1 888 0
 1052 058e 3B68     		ldr	r3, [r7, #0]
 1053 0590 1B78     		ldrb	r3, [r3, #0]	@ zero_extendqisi2
 1054 0592 1846     		mov	r0, r3
 1055 0594 01F086F8 		bl	RTC_Bcd2ToByte
 1056 0598 0346     		mov	r3, r0
 1057 059a 1A46     		mov	r2, r3
 1058 059c 3B68     		ldr	r3, [r7, #0]
 1059 059e 1A70     		strb	r2, [r3, #0]
 889:../Libraries/STM32F4xx_StdPeriph_Driver/src/stm32f4xx_rtc.c ****     RTC_TimeStruct->RTC_Minutes = (uint8_t)RTC_Bcd2ToByte(RTC_TimeStruct->RTC_Minutes);
 1060              		.loc 1 889 0
 1061 05a0 3B68     		ldr	r3, [r7, #0]
 1062 05a2 5B78     		ldrb	r3, [r3, #1]	@ zero_extendqisi2
 1063 05a4 1846     		mov	r0, r3
 1064 05a6 01F07DF8 		bl	RTC_Bcd2ToByte
 1065 05aa 0346     		mov	r3, r0
 1066 05ac 1A46     		mov	r2, r3
 1067 05ae 3B68     		ldr	r3, [r7, #0]
 1068 05b0 5A70     		strb	r2, [r3, #1]
 890:../Libraries/STM32F4xx_StdPeriph_Driver/src/stm32f4xx_rtc.c ****     RTC_TimeStruct->RTC_Seconds = (uint8_t)RTC_Bcd2ToByte(RTC_TimeStruct->RTC_Seconds);   
 1069              		.loc 1 890 0
 1070 05b2 3B68     		ldr	r3, [r7, #0]
 1071 05b4 9B78     		ldrb	r3, [r3, #2]	@ zero_extendqisi2
 1072 05b6 1846     		mov	r0, r3
 1073 05b8 01F074F8 		bl	RTC_Bcd2ToByte
 1074 05bc 0346     		mov	r3, r0
 1075 05be 1A46     		mov	r2, r3
 1076 05c0 3B68     		ldr	r3, [r7, #0]
 1077 05c2 9A70     		strb	r2, [r3, #2]
 1078              	.L69:
 891:../Libraries/STM32F4xx_StdPeriph_Driver/src/stm32f4xx_rtc.c ****   }
 892:../Libraries/STM32F4xx_StdPeriph_Driver/src/stm32f4xx_rtc.c **** }
 1079              		.loc 1 892 0
 1080 05c4 07F11007 		add	r7, r7, #16
 1081 05c8 BD46     		mov	sp, r7
 1082 05ca 80BD     		pop	{r7, pc}
 1083              	.L72:
 1084              		.align	2
 1085              	.L71:
 1086 05cc 00280040 		.word	1073752064
 1087              		.cfi_endproc
 1088              	.LFE121:
 1090              		.align	2
 1091              		.global	RTC_GetSubSecond
 1092              		.thumb
 1093              		.thumb_func
 1095              	RTC_GetSubSecond:
 1096              	.LFB122:
 893:../Libraries/STM32F4xx_StdPeriph_Driver/src/stm32f4xx_rtc.c **** 
 894:../Libraries/STM32F4xx_StdPeriph_Driver/src/stm32f4xx_rtc.c **** /**
 895:../Libraries/STM32F4xx_StdPeriph_Driver/src/stm32f4xx_rtc.c ****   * @brief  Gets the RTC current Calendar Subseconds value.
 896:../Libraries/STM32F4xx_StdPeriph_Driver/src/stm32f4xx_rtc.c ****   * @note   This function freeze the Time and Date registers after reading the 
 897:../Libraries/STM32F4xx_StdPeriph_Driver/src/stm32f4xx_rtc.c ****   *         SSR register.
 898:../Libraries/STM32F4xx_StdPeriph_Driver/src/stm32f4xx_rtc.c ****   * @param  None
 899:../Libraries/STM32F4xx_StdPeriph_Driver/src/stm32f4xx_rtc.c ****   * @retval RTC current Calendar Subseconds value.
 900:../Libraries/STM32F4xx_StdPeriph_Driver/src/stm32f4xx_rtc.c ****   */
 901:../Libraries/STM32F4xx_StdPeriph_Driver/src/stm32f4xx_rtc.c **** uint32_t RTC_GetSubSecond(void)
 902:../Libraries/STM32F4xx_StdPeriph_Driver/src/stm32f4xx_rtc.c **** {
 1097              		.loc 1 902 0
 1098              		.cfi_startproc
 1099              		@ args = 0, pretend = 0, frame = 8
 1100              		@ frame_needed = 1, uses_anonymous_args = 0
 1101              		@ link register save eliminated.
 1102 05d0 80B4     		push	{r7}
 1103              	.LCFI35:
 1104              		.cfi_def_cfa_offset 4
 1105              		.cfi_offset 7, -4
 1106 05d2 83B0     		sub	sp, sp, #12
 1107              	.LCFI36:
 1108              		.cfi_def_cfa_offset 16
 1109 05d4 00AF     		add	r7, sp, #0
 1110              	.LCFI37:
 1111              		.cfi_def_cfa_register 7
 903:../Libraries/STM32F4xx_StdPeriph_Driver/src/stm32f4xx_rtc.c ****   uint32_t tmpreg = 0;
 1112              		.loc 1 903 0
 1113 05d6 4FF00003 		mov	r3, #0
 1114 05da 7B60     		str	r3, [r7, #4]
 904:../Libraries/STM32F4xx_StdPeriph_Driver/src/stm32f4xx_rtc.c ****   
 905:../Libraries/STM32F4xx_StdPeriph_Driver/src/stm32f4xx_rtc.c ****   /* Get subseconds values from the correspondent registers*/
 906:../Libraries/STM32F4xx_StdPeriph_Driver/src/stm32f4xx_rtc.c ****   tmpreg = (uint32_t)(RTC->SSR);
 1115              		.loc 1 906 0
 1116 05dc 054B     		ldr	r3, .L75
 1117 05de 9B6A     		ldr	r3, [r3, #40]
 1118 05e0 7B60     		str	r3, [r7, #4]
 907:../Libraries/STM32F4xx_StdPeriph_Driver/src/stm32f4xx_rtc.c ****   
 908:../Libraries/STM32F4xx_StdPeriph_Driver/src/stm32f4xx_rtc.c ****   /* Read DR register to unfroze calendar registers */
 909:../Libraries/STM32F4xx_StdPeriph_Driver/src/stm32f4xx_rtc.c ****   (void) (RTC->DR);
 1119              		.loc 1 909 0
 1120 05e2 044B     		ldr	r3, .L75
 1121 05e4 5B68     		ldr	r3, [r3, #4]
 910:../Libraries/STM32F4xx_StdPeriph_Driver/src/stm32f4xx_rtc.c ****   
 911:../Libraries/STM32F4xx_StdPeriph_Driver/src/stm32f4xx_rtc.c ****   return (tmpreg);
 1122              		.loc 1 911 0
 1123 05e6 7B68     		ldr	r3, [r7, #4]
 912:../Libraries/STM32F4xx_StdPeriph_Driver/src/stm32f4xx_rtc.c **** }
 1124              		.loc 1 912 0
 1125 05e8 1846     		mov	r0, r3
 1126 05ea 07F10C07 		add	r7, r7, #12
 1127 05ee BD46     		mov	sp, r7
 1128 05f0 80BC     		pop	{r7}
 1129 05f2 7047     		bx	lr
 1130              	.L76:
 1131              		.align	2
 1132              	.L75:
 1133 05f4 00280040 		.word	1073752064
 1134              		.cfi_endproc
 1135              	.LFE122:
 1137              		.align	2
 1138              		.global	RTC_SetDate
 1139              		.thumb
 1140              		.thumb_func
 1142              	RTC_SetDate:
 1143              	.LFB123:
 913:../Libraries/STM32F4xx_StdPeriph_Driver/src/stm32f4xx_rtc.c **** 
 914:../Libraries/STM32F4xx_StdPeriph_Driver/src/stm32f4xx_rtc.c **** /**
 915:../Libraries/STM32F4xx_StdPeriph_Driver/src/stm32f4xx_rtc.c ****   * @brief  Set the RTC current date.
 916:../Libraries/STM32F4xx_StdPeriph_Driver/src/stm32f4xx_rtc.c ****   * @param  RTC_Format: specifies the format of the entered parameters.
 917:../Libraries/STM32F4xx_StdPeriph_Driver/src/stm32f4xx_rtc.c ****   *          This parameter can be  one of the following values:
 918:../Libraries/STM32F4xx_StdPeriph_Driver/src/stm32f4xx_rtc.c ****   *            @arg RTC_Format_BIN:  Binary data format 
 919:../Libraries/STM32F4xx_StdPeriph_Driver/src/stm32f4xx_rtc.c ****   *            @arg RTC_Format_BCD:  BCD data format
 920:../Libraries/STM32F4xx_StdPeriph_Driver/src/stm32f4xx_rtc.c ****   * @param  RTC_DateStruct: pointer to a RTC_DateTypeDef structure that contains 
 921:../Libraries/STM32F4xx_StdPeriph_Driver/src/stm32f4xx_rtc.c ****   *                         the date configuration information for the RTC.
 922:../Libraries/STM32F4xx_StdPeriph_Driver/src/stm32f4xx_rtc.c ****   * @retval An ErrorStatus enumeration value:
 923:../Libraries/STM32F4xx_StdPeriph_Driver/src/stm32f4xx_rtc.c ****   *          - SUCCESS: RTC Date register is configured
 924:../Libraries/STM32F4xx_StdPeriph_Driver/src/stm32f4xx_rtc.c ****   *          - ERROR: RTC Date register is not configured
 925:../Libraries/STM32F4xx_StdPeriph_Driver/src/stm32f4xx_rtc.c ****   */
 926:../Libraries/STM32F4xx_StdPeriph_Driver/src/stm32f4xx_rtc.c **** ErrorStatus RTC_SetDate(uint32_t RTC_Format, RTC_DateTypeDef* RTC_DateStruct)
 927:../Libraries/STM32F4xx_StdPeriph_Driver/src/stm32f4xx_rtc.c **** {
 1144              		.loc 1 927 0
 1145              		.cfi_startproc
 1146              		@ args = 0, pretend = 0, frame = 16
 1147              		@ frame_needed = 1, uses_anonymous_args = 0
 1148 05f8 90B5     		push	{r4, r7, lr}
 1149              	.LCFI38:
 1150              		.cfi_def_cfa_offset 12
 1151              		.cfi_offset 4, -12
 1152              		.cfi_offset 7, -8
 1153              		.cfi_offset 14, -4
 1154 05fa 85B0     		sub	sp, sp, #20
 1155              	.LCFI39:
 1156              		.cfi_def_cfa_offset 32
 1157 05fc 00AF     		add	r7, sp, #0
 1158              	.LCFI40:
 1159              		.cfi_def_cfa_register 7
 1160 05fe 7860     		str	r0, [r7, #4]
 1161 0600 3960     		str	r1, [r7, #0]
 928:../Libraries/STM32F4xx_StdPeriph_Driver/src/stm32f4xx_rtc.c ****   uint32_t tmpreg = 0;
 1162              		.loc 1 928 0
 1163 0602 4FF00003 		mov	r3, #0
 1164 0606 FB60     		str	r3, [r7, #12]
 929:../Libraries/STM32F4xx_StdPeriph_Driver/src/stm32f4xx_rtc.c ****   ErrorStatus status = ERROR;
 1165              		.loc 1 929 0
 1166 0608 4FF00003 		mov	r3, #0
 1167 060c FB72     		strb	r3, [r7, #11]
 930:../Libraries/STM32F4xx_StdPeriph_Driver/src/stm32f4xx_rtc.c ****   
 931:../Libraries/STM32F4xx_StdPeriph_Driver/src/stm32f4xx_rtc.c ****   /* Check the parameters */
 932:../Libraries/STM32F4xx_StdPeriph_Driver/src/stm32f4xx_rtc.c ****   assert_param(IS_RTC_FORMAT(RTC_Format));
 933:../Libraries/STM32F4xx_StdPeriph_Driver/src/stm32f4xx_rtc.c **** 
 934:../Libraries/STM32F4xx_StdPeriph_Driver/src/stm32f4xx_rtc.c ****   if ((RTC_Format == RTC_Format_BIN) && ((RTC_DateStruct->RTC_Month & 0x10) == 0x10))
 1168              		.loc 1 934 0
 1169 060e 7B68     		ldr	r3, [r7, #4]
 1170 0610 002B     		cmp	r3, #0
 1171 0612 0FD1     		bne	.L78
 1172              		.loc 1 934 0 is_stmt 0 discriminator 1
 1173 0614 3B68     		ldr	r3, [r7, #0]
 1174 0616 5B78     		ldrb	r3, [r3, #1]	@ zero_extendqisi2
 1175 0618 03F01003 		and	r3, r3, #16
 1176 061c 002B     		cmp	r3, #0
 1177 061e 09D0     		beq	.L78
 935:../Libraries/STM32F4xx_StdPeriph_Driver/src/stm32f4xx_rtc.c ****   {
 936:../Libraries/STM32F4xx_StdPeriph_Driver/src/stm32f4xx_rtc.c ****     RTC_DateStruct->RTC_Month = (RTC_DateStruct->RTC_Month & (uint32_t)~(0x10)) + 0x0A;
 1178              		.loc 1 936 0 is_stmt 1
 1179 0620 3B68     		ldr	r3, [r7, #0]
 1180 0622 5B78     		ldrb	r3, [r3, #1]	@ zero_extendqisi2
 1181 0624 23F01003 		bic	r3, r3, #16
 1182 0628 DBB2     		uxtb	r3, r3
 1183 062a 03F10A03 		add	r3, r3, #10
 1184 062e DAB2     		uxtb	r2, r3
 1185 0630 3B68     		ldr	r3, [r7, #0]
 1186 0632 5A70     		strb	r2, [r3, #1]
 1187              	.L78:
 937:../Libraries/STM32F4xx_StdPeriph_Driver/src/stm32f4xx_rtc.c ****   }  
 938:../Libraries/STM32F4xx_StdPeriph_Driver/src/stm32f4xx_rtc.c ****   if (RTC_Format == RTC_Format_BIN)
 1188              		.loc 1 938 0
 1189 0634 7B68     		ldr	r3, [r7, #4]
 1190 0636 002B     		cmp	r3, #0
 1191 0638 0DD0     		beq	.L79
 939:../Libraries/STM32F4xx_StdPeriph_Driver/src/stm32f4xx_rtc.c ****   {
 940:../Libraries/STM32F4xx_StdPeriph_Driver/src/stm32f4xx_rtc.c ****     assert_param(IS_RTC_YEAR(RTC_DateStruct->RTC_Year));
 941:../Libraries/STM32F4xx_StdPeriph_Driver/src/stm32f4xx_rtc.c ****     assert_param(IS_RTC_MONTH(RTC_DateStruct->RTC_Month));
 942:../Libraries/STM32F4xx_StdPeriph_Driver/src/stm32f4xx_rtc.c ****     assert_param(IS_RTC_DATE(RTC_DateStruct->RTC_Date));
 943:../Libraries/STM32F4xx_StdPeriph_Driver/src/stm32f4xx_rtc.c ****   }
 944:../Libraries/STM32F4xx_StdPeriph_Driver/src/stm32f4xx_rtc.c ****   else
 945:../Libraries/STM32F4xx_StdPeriph_Driver/src/stm32f4xx_rtc.c ****   {
 946:../Libraries/STM32F4xx_StdPeriph_Driver/src/stm32f4xx_rtc.c ****     assert_param(IS_RTC_YEAR(RTC_Bcd2ToByte(RTC_DateStruct->RTC_Year)));
 947:../Libraries/STM32F4xx_StdPeriph_Driver/src/stm32f4xx_rtc.c ****     tmpreg = RTC_Bcd2ToByte(RTC_DateStruct->RTC_Month);
 1192              		.loc 1 947 0
 1193 063a 3B68     		ldr	r3, [r7, #0]
 1194 063c 5B78     		ldrb	r3, [r3, #1]	@ zero_extendqisi2
 1195 063e 1846     		mov	r0, r3
 1196 0640 01F030F8 		bl	RTC_Bcd2ToByte
 1197 0644 0346     		mov	r3, r0
 1198 0646 FB60     		str	r3, [r7, #12]
 948:../Libraries/STM32F4xx_StdPeriph_Driver/src/stm32f4xx_rtc.c ****     assert_param(IS_RTC_MONTH(tmpreg));
 949:../Libraries/STM32F4xx_StdPeriph_Driver/src/stm32f4xx_rtc.c ****     tmpreg = RTC_Bcd2ToByte(RTC_DateStruct->RTC_Date);
 1199              		.loc 1 949 0
 1200 0648 3B68     		ldr	r3, [r7, #0]
 1201 064a 9B78     		ldrb	r3, [r3, #2]	@ zero_extendqisi2
 1202 064c 1846     		mov	r0, r3
 1203 064e 01F029F8 		bl	RTC_Bcd2ToByte
 1204 0652 0346     		mov	r3, r0
 1205 0654 FB60     		str	r3, [r7, #12]
 1206              	.L79:
 950:../Libraries/STM32F4xx_StdPeriph_Driver/src/stm32f4xx_rtc.c ****     assert_param(IS_RTC_DATE(tmpreg));
 951:../Libraries/STM32F4xx_StdPeriph_Driver/src/stm32f4xx_rtc.c ****   }
 952:../Libraries/STM32F4xx_StdPeriph_Driver/src/stm32f4xx_rtc.c ****   assert_param(IS_RTC_WEEKDAY(RTC_DateStruct->RTC_WeekDay));
 953:../Libraries/STM32F4xx_StdPeriph_Driver/src/stm32f4xx_rtc.c **** 
 954:../Libraries/STM32F4xx_StdPeriph_Driver/src/stm32f4xx_rtc.c ****   /* Check the input parameters format */
 955:../Libraries/STM32F4xx_StdPeriph_Driver/src/stm32f4xx_rtc.c ****   if (RTC_Format != RTC_Format_BIN)
 1207              		.loc 1 955 0
 1208 0656 7B68     		ldr	r3, [r7, #4]
 1209 0658 002B     		cmp	r3, #0
 1210 065a 12D0     		beq	.L80
 956:../Libraries/STM32F4xx_StdPeriph_Driver/src/stm32f4xx_rtc.c ****   {
 957:../Libraries/STM32F4xx_StdPeriph_Driver/src/stm32f4xx_rtc.c ****     tmpreg = ((((uint32_t)RTC_DateStruct->RTC_Year) << 16) | \
 1211              		.loc 1 957 0
 1212 065c 3B68     		ldr	r3, [r7, #0]
 1213 065e DB78     		ldrb	r3, [r3, #3]	@ zero_extendqisi2
 1214 0660 4FEA0342 		lsl	r2, r3, #16
 958:../Libraries/STM32F4xx_StdPeriph_Driver/src/stm32f4xx_rtc.c ****               (((uint32_t)RTC_DateStruct->RTC_Month) << 8) | \
 1215              		.loc 1 958 0
 1216 0664 3B68     		ldr	r3, [r7, #0]
 1217 0666 5B78     		ldrb	r3, [r3, #1]	@ zero_extendqisi2
 1218 0668 4FEA0323 		lsl	r3, r3, #8
 957:../Libraries/STM32F4xx_StdPeriph_Driver/src/stm32f4xx_rtc.c ****     tmpreg = ((((uint32_t)RTC_DateStruct->RTC_Year) << 16) | \
 1219              		.loc 1 957 0
 1220 066c 1A43     		orrs	r2, r2, r3
 959:../Libraries/STM32F4xx_StdPeriph_Driver/src/stm32f4xx_rtc.c ****               ((uint32_t)RTC_DateStruct->RTC_Date) | \
 1221              		.loc 1 959 0
 1222 066e 3B68     		ldr	r3, [r7, #0]
 1223 0670 9B78     		ldrb	r3, [r3, #2]	@ zero_extendqisi2
 958:../Libraries/STM32F4xx_StdPeriph_Driver/src/stm32f4xx_rtc.c ****               (((uint32_t)RTC_DateStruct->RTC_Month) << 8) | \
 1224              		.loc 1 958 0
 1225 0672 1A43     		orrs	r2, r2, r3
 960:../Libraries/STM32F4xx_StdPeriph_Driver/src/stm32f4xx_rtc.c ****               (((uint32_t)RTC_DateStruct->RTC_WeekDay) << 13)); 
 1226              		.loc 1 960 0
 1227 0674 3B68     		ldr	r3, [r7, #0]
 1228 0676 1B78     		ldrb	r3, [r3, #0]	@ zero_extendqisi2
 1229 0678 4FEA4333 		lsl	r3, r3, #13
 957:../Libraries/STM32F4xx_StdPeriph_Driver/src/stm32f4xx_rtc.c ****     tmpreg = ((((uint32_t)RTC_DateStruct->RTC_Year) << 16) | \
 1230              		.loc 1 957 0
 1231 067c 1343     		orrs	r3, r3, r2
 1232 067e FB60     		str	r3, [r7, #12]
 1233 0680 1EE0     		b	.L81
 1234              	.L80:
 961:../Libraries/STM32F4xx_StdPeriph_Driver/src/stm32f4xx_rtc.c ****   }  
 962:../Libraries/STM32F4xx_StdPeriph_Driver/src/stm32f4xx_rtc.c ****   else
 963:../Libraries/STM32F4xx_StdPeriph_Driver/src/stm32f4xx_rtc.c ****   {
 964:../Libraries/STM32F4xx_StdPeriph_Driver/src/stm32f4xx_rtc.c ****     tmpreg = (((uint32_t)RTC_ByteToBcd2(RTC_DateStruct->RTC_Year) << 16) | \
 1235              		.loc 1 964 0
 1236 0682 3B68     		ldr	r3, [r7, #0]
 1237 0684 DB78     		ldrb	r3, [r3, #3]	@ zero_extendqisi2
 1238 0686 1846     		mov	r0, r3
 1239 0688 00F0EAFF 		bl	RTC_ByteToBcd2
 1240 068c 0346     		mov	r3, r0
 1241 068e 4FEA0344 		lsl	r4, r3, #16
 965:../Libraries/STM32F4xx_StdPeriph_Driver/src/stm32f4xx_rtc.c ****               ((uint32_t)RTC_ByteToBcd2(RTC_DateStruct->RTC_Month) << 8) | \
 1242              		.loc 1 965 0
 1243 0692 3B68     		ldr	r3, [r7, #0]
 1244 0694 5B78     		ldrb	r3, [r3, #1]	@ zero_extendqisi2
 1245 0696 1846     		mov	r0, r3
 1246 0698 00F0E2FF 		bl	RTC_ByteToBcd2
 1247 069c 0346     		mov	r3, r0
 1248 069e 4FEA0323 		lsl	r3, r3, #8
 964:../Libraries/STM32F4xx_StdPeriph_Driver/src/stm32f4xx_rtc.c ****     tmpreg = (((uint32_t)RTC_ByteToBcd2(RTC_DateStruct->RTC_Year) << 16) | \
 1249              		.loc 1 964 0
 1250 06a2 1C43     		orrs	r4, r4, r3
 966:../Libraries/STM32F4xx_StdPeriph_Driver/src/stm32f4xx_rtc.c ****               ((uint32_t)RTC_ByteToBcd2(RTC_DateStruct->RTC_Date)) | \
 1251              		.loc 1 966 0
 1252 06a4 3B68     		ldr	r3, [r7, #0]
 1253 06a6 9B78     		ldrb	r3, [r3, #2]	@ zero_extendqisi2
 1254 06a8 1846     		mov	r0, r3
 1255 06aa 00F0D9FF 		bl	RTC_ByteToBcd2
 1256 06ae 0346     		mov	r3, r0
 965:../Libraries/STM32F4xx_StdPeriph_Driver/src/stm32f4xx_rtc.c ****               ((uint32_t)RTC_ByteToBcd2(RTC_DateStruct->RTC_Month) << 8) | \
 1257              		.loc 1 965 0
 1258 06b0 44EA0302 		orr	r2, r4, r3
 967:../Libraries/STM32F4xx_StdPeriph_Driver/src/stm32f4xx_rtc.c ****               ((uint32_t)RTC_DateStruct->RTC_WeekDay << 13));
 1259              		.loc 1 967 0
 1260 06b4 3B68     		ldr	r3, [r7, #0]
 1261 06b6 1B78     		ldrb	r3, [r3, #0]	@ zero_extendqisi2
 1262 06b8 4FEA4333 		lsl	r3, r3, #13
 964:../Libraries/STM32F4xx_StdPeriph_Driver/src/stm32f4xx_rtc.c ****     tmpreg = (((uint32_t)RTC_ByteToBcd2(RTC_DateStruct->RTC_Year) << 16) | \
 1263              		.loc 1 964 0
 1264 06bc 1343     		orrs	r3, r3, r2
 1265 06be FB60     		str	r3, [r7, #12]
 1266              	.L81:
 968:../Libraries/STM32F4xx_StdPeriph_Driver/src/stm32f4xx_rtc.c ****   }
 969:../Libraries/STM32F4xx_StdPeriph_Driver/src/stm32f4xx_rtc.c **** 
 970:../Libraries/STM32F4xx_StdPeriph_Driver/src/stm32f4xx_rtc.c ****   /* Disable the write protection for RTC registers */
 971:../Libraries/STM32F4xx_StdPeriph_Driver/src/stm32f4xx_rtc.c ****   RTC->WPR = 0xCA;
 1267              		.loc 1 971 0
 1268 06c0 174B     		ldr	r3, .L86
 1269 06c2 4FF0CA02 		mov	r2, #202
 1270 06c6 5A62     		str	r2, [r3, #36]
 972:../Libraries/STM32F4xx_StdPeriph_Driver/src/stm32f4xx_rtc.c ****   RTC->WPR = 0x53;
 1271              		.loc 1 972 0
 1272 06c8 154B     		ldr	r3, .L86
 1273 06ca 4FF05302 		mov	r2, #83
 1274 06ce 5A62     		str	r2, [r3, #36]
 973:../Libraries/STM32F4xx_StdPeriph_Driver/src/stm32f4xx_rtc.c **** 
 974:../Libraries/STM32F4xx_StdPeriph_Driver/src/stm32f4xx_rtc.c ****   /* Set Initialization mode */
 975:../Libraries/STM32F4xx_StdPeriph_Driver/src/stm32f4xx_rtc.c ****   if (RTC_EnterInitMode() == ERROR)
 1275              		.loc 1 975 0
 1276 06d0 FFF7FEFF 		bl	RTC_EnterInitMode
 1277 06d4 0346     		mov	r3, r0
 1278 06d6 002B     		cmp	r3, #0
 1279 06d8 03D1     		bne	.L82
 976:../Libraries/STM32F4xx_StdPeriph_Driver/src/stm32f4xx_rtc.c ****   {
 977:../Libraries/STM32F4xx_StdPeriph_Driver/src/stm32f4xx_rtc.c ****     status = ERROR;
 1280              		.loc 1 977 0
 1281 06da 4FF00003 		mov	r3, #0
 1282 06de FB72     		strb	r3, [r7, #11]
 1283 06e0 14E0     		b	.L83
 1284              	.L82:
 978:../Libraries/STM32F4xx_StdPeriph_Driver/src/stm32f4xx_rtc.c ****   } 
 979:../Libraries/STM32F4xx_StdPeriph_Driver/src/stm32f4xx_rtc.c ****   else
 980:../Libraries/STM32F4xx_StdPeriph_Driver/src/stm32f4xx_rtc.c ****   {
 981:../Libraries/STM32F4xx_StdPeriph_Driver/src/stm32f4xx_rtc.c ****     /* Set the RTC_DR register */
 982:../Libraries/STM32F4xx_StdPeriph_Driver/src/stm32f4xx_rtc.c ****     RTC->DR = (uint32_t)(tmpreg & RTC_DR_RESERVED_MASK);
 1285              		.loc 1 982 0
 1286 06e2 0F4A     		ldr	r2, .L86
 1287 06e4 FB68     		ldr	r3, [r7, #12]
 1288 06e6 23F07F43 		bic	r3, r3, #-16777216
 1289 06ea 23F0C003 		bic	r3, r3, #192
 1290 06ee 5360     		str	r3, [r2, #4]
 983:../Libraries/STM32F4xx_StdPeriph_Driver/src/stm32f4xx_rtc.c **** 
 984:../Libraries/STM32F4xx_StdPeriph_Driver/src/stm32f4xx_rtc.c ****     /* Exit Initialization mode */
 985:../Libraries/STM32F4xx_StdPeriph_Driver/src/stm32f4xx_rtc.c ****     RTC_ExitInitMode(); 
 1291              		.loc 1 985 0
 1292 06f0 FFF7FEFF 		bl	RTC_ExitInitMode
 986:../Libraries/STM32F4xx_StdPeriph_Driver/src/stm32f4xx_rtc.c **** 
 987:../Libraries/STM32F4xx_StdPeriph_Driver/src/stm32f4xx_rtc.c ****     if(RTC_WaitForSynchro() == ERROR)
 1293              		.loc 1 987 0
 1294 06f4 FFF7FEFF 		bl	RTC_WaitForSynchro
 1295 06f8 0346     		mov	r3, r0
 1296 06fa 002B     		cmp	r3, #0
 1297 06fc 03D1     		bne	.L84
 988:../Libraries/STM32F4xx_StdPeriph_Driver/src/stm32f4xx_rtc.c ****     {
 989:../Libraries/STM32F4xx_StdPeriph_Driver/src/stm32f4xx_rtc.c ****       status = ERROR;
 1298              		.loc 1 989 0
 1299 06fe 4FF00003 		mov	r3, #0
 1300 0702 FB72     		strb	r3, [r7, #11]
 1301 0704 02E0     		b	.L83
 1302              	.L84:
 990:../Libraries/STM32F4xx_StdPeriph_Driver/src/stm32f4xx_rtc.c ****     }
 991:../Libraries/STM32F4xx_StdPeriph_Driver/src/stm32f4xx_rtc.c ****     else
 992:../Libraries/STM32F4xx_StdPeriph_Driver/src/stm32f4xx_rtc.c ****     {
 993:../Libraries/STM32F4xx_StdPeriph_Driver/src/stm32f4xx_rtc.c ****       status = SUCCESS;
 1303              		.loc 1 993 0
 1304 0706 4FF00103 		mov	r3, #1
 1305 070a FB72     		strb	r3, [r7, #11]
 1306              	.L83:
 994:../Libraries/STM32F4xx_StdPeriph_Driver/src/stm32f4xx_rtc.c ****     }
 995:../Libraries/STM32F4xx_StdPeriph_Driver/src/stm32f4xx_rtc.c ****   }
 996:../Libraries/STM32F4xx_StdPeriph_Driver/src/stm32f4xx_rtc.c ****   /* Enable the write protection for RTC registers */
 997:../Libraries/STM32F4xx_StdPeriph_Driver/src/stm32f4xx_rtc.c ****   RTC->WPR = 0xFF;   
 1307              		.loc 1 997 0
 1308 070c 044B     		ldr	r3, .L86
 1309 070e 4FF0FF02 		mov	r2, #255
 1310 0712 5A62     		str	r2, [r3, #36]
 998:../Libraries/STM32F4xx_StdPeriph_Driver/src/stm32f4xx_rtc.c ****   
 999:../Libraries/STM32F4xx_StdPeriph_Driver/src/stm32f4xx_rtc.c ****   return status;
 1311              		.loc 1 999 0
 1312 0714 FB7A     		ldrb	r3, [r7, #11]	@ zero_extendqisi2
1000:../Libraries/STM32F4xx_StdPeriph_Driver/src/stm32f4xx_rtc.c **** }
 1313              		.loc 1 1000 0
 1314 0716 1846     		mov	r0, r3
 1315 0718 07F11407 		add	r7, r7, #20
 1316 071c BD46     		mov	sp, r7
 1317 071e 90BD     		pop	{r4, r7, pc}
 1318              	.L87:
 1319              		.align	2
 1320              	.L86:
 1321 0720 00280040 		.word	1073752064
 1322              		.cfi_endproc
 1323              	.LFE123:
 1325              		.align	2
 1326              		.global	RTC_DateStructInit
 1327              		.thumb
 1328              		.thumb_func
 1330              	RTC_DateStructInit:
 1331              	.LFB124:
1001:../Libraries/STM32F4xx_StdPeriph_Driver/src/stm32f4xx_rtc.c **** 
1002:../Libraries/STM32F4xx_StdPeriph_Driver/src/stm32f4xx_rtc.c **** /**
1003:../Libraries/STM32F4xx_StdPeriph_Driver/src/stm32f4xx_rtc.c ****   * @brief  Fills each RTC_DateStruct member with its default value
1004:../Libraries/STM32F4xx_StdPeriph_Driver/src/stm32f4xx_rtc.c ****   *         (Monday, January 01 xx00).
1005:../Libraries/STM32F4xx_StdPeriph_Driver/src/stm32f4xx_rtc.c ****   * @param  RTC_DateStruct: pointer to a RTC_DateTypeDef structure which will be 
1006:../Libraries/STM32F4xx_StdPeriph_Driver/src/stm32f4xx_rtc.c ****   *         initialized.
1007:../Libraries/STM32F4xx_StdPeriph_Driver/src/stm32f4xx_rtc.c ****   * @retval None
1008:../Libraries/STM32F4xx_StdPeriph_Driver/src/stm32f4xx_rtc.c ****   */
1009:../Libraries/STM32F4xx_StdPeriph_Driver/src/stm32f4xx_rtc.c **** void RTC_DateStructInit(RTC_DateTypeDef* RTC_DateStruct)
1010:../Libraries/STM32F4xx_StdPeriph_Driver/src/stm32f4xx_rtc.c **** {
 1332              		.loc 1 1010 0
 1333              		.cfi_startproc
 1334              		@ args = 0, pretend = 0, frame = 8
 1335              		@ frame_needed = 1, uses_anonymous_args = 0
 1336              		@ link register save eliminated.
 1337 0724 80B4     		push	{r7}
 1338              	.LCFI41:
 1339              		.cfi_def_cfa_offset 4
 1340              		.cfi_offset 7, -4
 1341 0726 83B0     		sub	sp, sp, #12
 1342              	.LCFI42:
 1343              		.cfi_def_cfa_offset 16
 1344 0728 00AF     		add	r7, sp, #0
 1345              	.LCFI43:
 1346              		.cfi_def_cfa_register 7
 1347 072a 7860     		str	r0, [r7, #4]
1011:../Libraries/STM32F4xx_StdPeriph_Driver/src/stm32f4xx_rtc.c ****   /* Monday, January 01 xx00 */
1012:../Libraries/STM32F4xx_StdPeriph_Driver/src/stm32f4xx_rtc.c ****   RTC_DateStruct->RTC_WeekDay = RTC_Weekday_Monday;
 1348              		.loc 1 1012 0
 1349 072c 7B68     		ldr	r3, [r7, #4]
 1350 072e 4FF00102 		mov	r2, #1
 1351 0732 1A70     		strb	r2, [r3, #0]
1013:../Libraries/STM32F4xx_StdPeriph_Driver/src/stm32f4xx_rtc.c ****   RTC_DateStruct->RTC_Date = 1;
 1352              		.loc 1 1013 0
 1353 0734 7B68     		ldr	r3, [r7, #4]
 1354 0736 4FF00102 		mov	r2, #1
 1355 073a 9A70     		strb	r2, [r3, #2]
1014:../Libraries/STM32F4xx_StdPeriph_Driver/src/stm32f4xx_rtc.c ****   RTC_DateStruct->RTC_Month = RTC_Month_January;
 1356              		.loc 1 1014 0
 1357 073c 7B68     		ldr	r3, [r7, #4]
 1358 073e 4FF00102 		mov	r2, #1
 1359 0742 5A70     		strb	r2, [r3, #1]
1015:../Libraries/STM32F4xx_StdPeriph_Driver/src/stm32f4xx_rtc.c ****   RTC_DateStruct->RTC_Year = 0;
 1360              		.loc 1 1015 0
 1361 0744 7B68     		ldr	r3, [r7, #4]
 1362 0746 4FF00002 		mov	r2, #0
 1363 074a DA70     		strb	r2, [r3, #3]
1016:../Libraries/STM32F4xx_StdPeriph_Driver/src/stm32f4xx_rtc.c **** }
 1364              		.loc 1 1016 0
 1365 074c 07F10C07 		add	r7, r7, #12
 1366 0750 BD46     		mov	sp, r7
 1367 0752 80BC     		pop	{r7}
 1368 0754 7047     		bx	lr
 1369              		.cfi_endproc
 1370              	.LFE124:
 1372 0756 00BF     		.align	2
 1373              		.global	RTC_GetDate
 1374              		.thumb
 1375              		.thumb_func
 1377              	RTC_GetDate:
 1378              	.LFB125:
1017:../Libraries/STM32F4xx_StdPeriph_Driver/src/stm32f4xx_rtc.c **** 
1018:../Libraries/STM32F4xx_StdPeriph_Driver/src/stm32f4xx_rtc.c **** /**
1019:../Libraries/STM32F4xx_StdPeriph_Driver/src/stm32f4xx_rtc.c ****   * @brief  Get the RTC current date. 
1020:../Libraries/STM32F4xx_StdPeriph_Driver/src/stm32f4xx_rtc.c ****   * @param  RTC_Format: specifies the format of the returned parameters.
1021:../Libraries/STM32F4xx_StdPeriph_Driver/src/stm32f4xx_rtc.c ****   *          This parameter can be one of the following values:
1022:../Libraries/STM32F4xx_StdPeriph_Driver/src/stm32f4xx_rtc.c ****   *            @arg RTC_Format_BIN: Binary data format 
1023:../Libraries/STM32F4xx_StdPeriph_Driver/src/stm32f4xx_rtc.c ****   *            @arg RTC_Format_BCD: BCD data format
1024:../Libraries/STM32F4xx_StdPeriph_Driver/src/stm32f4xx_rtc.c ****   * @param RTC_DateStruct: pointer to a RTC_DateTypeDef structure that will 
1025:../Libraries/STM32F4xx_StdPeriph_Driver/src/stm32f4xx_rtc.c ****   *                        contain the returned current date configuration.     
1026:../Libraries/STM32F4xx_StdPeriph_Driver/src/stm32f4xx_rtc.c ****   * @retval None
1027:../Libraries/STM32F4xx_StdPeriph_Driver/src/stm32f4xx_rtc.c ****   */
1028:../Libraries/STM32F4xx_StdPeriph_Driver/src/stm32f4xx_rtc.c **** void RTC_GetDate(uint32_t RTC_Format, RTC_DateTypeDef* RTC_DateStruct)
1029:../Libraries/STM32F4xx_StdPeriph_Driver/src/stm32f4xx_rtc.c **** {
 1379              		.loc 1 1029 0
 1380              		.cfi_startproc
 1381              		@ args = 0, pretend = 0, frame = 16
 1382              		@ frame_needed = 1, uses_anonymous_args = 0
 1383 0758 80B5     		push	{r7, lr}
 1384              	.LCFI44:
 1385              		.cfi_def_cfa_offset 8
 1386              		.cfi_offset 7, -8
 1387              		.cfi_offset 14, -4
 1388 075a 84B0     		sub	sp, sp, #16
 1389              	.LCFI45:
 1390              		.cfi_def_cfa_offset 24
 1391 075c 00AF     		add	r7, sp, #0
 1392              	.LCFI46:
 1393              		.cfi_def_cfa_register 7
 1394 075e 7860     		str	r0, [r7, #4]
 1395 0760 3960     		str	r1, [r7, #0]
1030:../Libraries/STM32F4xx_StdPeriph_Driver/src/stm32f4xx_rtc.c ****   uint32_t tmpreg = 0;
 1396              		.loc 1 1030 0
 1397 0762 4FF00003 		mov	r3, #0
 1398 0766 FB60     		str	r3, [r7, #12]
1031:../Libraries/STM32F4xx_StdPeriph_Driver/src/stm32f4xx_rtc.c **** 
1032:../Libraries/STM32F4xx_StdPeriph_Driver/src/stm32f4xx_rtc.c ****   /* Check the parameters */
1033:../Libraries/STM32F4xx_StdPeriph_Driver/src/stm32f4xx_rtc.c ****   assert_param(IS_RTC_FORMAT(RTC_Format));
1034:../Libraries/STM32F4xx_StdPeriph_Driver/src/stm32f4xx_rtc.c ****   
1035:../Libraries/STM32F4xx_StdPeriph_Driver/src/stm32f4xx_rtc.c ****   /* Get the RTC_TR register */
1036:../Libraries/STM32F4xx_StdPeriph_Driver/src/stm32f4xx_rtc.c ****   tmpreg = (uint32_t)(RTC->DR & RTC_DR_RESERVED_MASK); 
 1399              		.loc 1 1036 0
 1400 0768 234B     		ldr	r3, .L91
 1401 076a 5B68     		ldr	r3, [r3, #4]
 1402 076c 23F07F43 		bic	r3, r3, #-16777216
 1403 0770 23F0C003 		bic	r3, r3, #192
 1404 0774 FB60     		str	r3, [r7, #12]
1037:../Libraries/STM32F4xx_StdPeriph_Driver/src/stm32f4xx_rtc.c **** 
1038:../Libraries/STM32F4xx_StdPeriph_Driver/src/stm32f4xx_rtc.c ****   /* Fill the structure fields with the read parameters */
1039:../Libraries/STM32F4xx_StdPeriph_Driver/src/stm32f4xx_rtc.c ****   RTC_DateStruct->RTC_Year = (uint8_t)((tmpreg & (RTC_DR_YT | RTC_DR_YU)) >> 16);
 1405              		.loc 1 1039 0
 1406 0776 FB68     		ldr	r3, [r7, #12]
 1407 0778 03F47F03 		and	r3, r3, #16711680
 1408 077c 4FEA1343 		lsr	r3, r3, #16
 1409 0780 DAB2     		uxtb	r2, r3
 1410 0782 3B68     		ldr	r3, [r7, #0]
 1411 0784 DA70     		strb	r2, [r3, #3]
1040:../Libraries/STM32F4xx_StdPeriph_Driver/src/stm32f4xx_rtc.c ****   RTC_DateStruct->RTC_Month = (uint8_t)((tmpreg & (RTC_DR_MT | RTC_DR_MU)) >> 8);
 1412              		.loc 1 1040 0
 1413 0786 FB68     		ldr	r3, [r7, #12]
 1414 0788 03F4F853 		and	r3, r3, #7936
 1415 078c 4FEA1323 		lsr	r3, r3, #8
 1416 0790 DAB2     		uxtb	r2, r3
 1417 0792 3B68     		ldr	r3, [r7, #0]
 1418 0794 5A70     		strb	r2, [r3, #1]
1041:../Libraries/STM32F4xx_StdPeriph_Driver/src/stm32f4xx_rtc.c ****   RTC_DateStruct->RTC_Date = (uint8_t)(tmpreg & (RTC_DR_DT | RTC_DR_DU));
 1419              		.loc 1 1041 0
 1420 0796 FB68     		ldr	r3, [r7, #12]
 1421 0798 DBB2     		uxtb	r3, r3
 1422 079a 03F03F03 		and	r3, r3, #63
 1423 079e DAB2     		uxtb	r2, r3
 1424 07a0 3B68     		ldr	r3, [r7, #0]
 1425 07a2 9A70     		strb	r2, [r3, #2]
1042:../Libraries/STM32F4xx_StdPeriph_Driver/src/stm32f4xx_rtc.c ****   RTC_DateStruct->RTC_WeekDay = (uint8_t)((tmpreg & (RTC_DR_WDU)) >> 13);
 1426              		.loc 1 1042 0
 1427 07a4 FB68     		ldr	r3, [r7, #12]
 1428 07a6 03F46043 		and	r3, r3, #57344
 1429 07aa 4FEA5333 		lsr	r3, r3, #13
 1430 07ae DAB2     		uxtb	r2, r3
 1431 07b0 3B68     		ldr	r3, [r7, #0]
 1432 07b2 1A70     		strb	r2, [r3, #0]
1043:../Libraries/STM32F4xx_StdPeriph_Driver/src/stm32f4xx_rtc.c **** 
1044:../Libraries/STM32F4xx_StdPeriph_Driver/src/stm32f4xx_rtc.c ****   /* Check the input parameters format */
1045:../Libraries/STM32F4xx_StdPeriph_Driver/src/stm32f4xx_rtc.c ****   if (RTC_Format == RTC_Format_BIN)
 1433              		.loc 1 1045 0
 1434 07b4 7B68     		ldr	r3, [r7, #4]
 1435 07b6 002B     		cmp	r3, #0
 1436 07b8 1AD1     		bne	.L89
1046:../Libraries/STM32F4xx_StdPeriph_Driver/src/stm32f4xx_rtc.c ****   {
1047:../Libraries/STM32F4xx_StdPeriph_Driver/src/stm32f4xx_rtc.c ****     /* Convert the structure parameters to Binary format */
1048:../Libraries/STM32F4xx_StdPeriph_Driver/src/stm32f4xx_rtc.c ****     RTC_DateStruct->RTC_Year = (uint8_t)RTC_Bcd2ToByte(RTC_DateStruct->RTC_Year);
 1437              		.loc 1 1048 0
 1438 07ba 3B68     		ldr	r3, [r7, #0]
 1439 07bc DB78     		ldrb	r3, [r3, #3]	@ zero_extendqisi2
 1440 07be 1846     		mov	r0, r3
 1441 07c0 00F070FF 		bl	RTC_Bcd2ToByte
 1442 07c4 0346     		mov	r3, r0
 1443 07c6 1A46     		mov	r2, r3
 1444 07c8 3B68     		ldr	r3, [r7, #0]
 1445 07ca DA70     		strb	r2, [r3, #3]
1049:../Libraries/STM32F4xx_StdPeriph_Driver/src/stm32f4xx_rtc.c ****     RTC_DateStruct->RTC_Month = (uint8_t)RTC_Bcd2ToByte(RTC_DateStruct->RTC_Month);
 1446              		.loc 1 1049 0
 1447 07cc 3B68     		ldr	r3, [r7, #0]
 1448 07ce 5B78     		ldrb	r3, [r3, #1]	@ zero_extendqisi2
 1449 07d0 1846     		mov	r0, r3
 1450 07d2 00F067FF 		bl	RTC_Bcd2ToByte
 1451 07d6 0346     		mov	r3, r0
 1452 07d8 1A46     		mov	r2, r3
 1453 07da 3B68     		ldr	r3, [r7, #0]
 1454 07dc 5A70     		strb	r2, [r3, #1]
1050:../Libraries/STM32F4xx_StdPeriph_Driver/src/stm32f4xx_rtc.c ****     RTC_DateStruct->RTC_Date = (uint8_t)RTC_Bcd2ToByte(RTC_DateStruct->RTC_Date);
 1455              		.loc 1 1050 0
 1456 07de 3B68     		ldr	r3, [r7, #0]
 1457 07e0 9B78     		ldrb	r3, [r3, #2]	@ zero_extendqisi2
 1458 07e2 1846     		mov	r0, r3
 1459 07e4 00F05EFF 		bl	RTC_Bcd2ToByte
 1460 07e8 0346     		mov	r3, r0
 1461 07ea 1A46     		mov	r2, r3
 1462 07ec 3B68     		ldr	r3, [r7, #0]
 1463 07ee 9A70     		strb	r2, [r3, #2]
 1464              	.L89:
1051:../Libraries/STM32F4xx_StdPeriph_Driver/src/stm32f4xx_rtc.c ****   }
1052:../Libraries/STM32F4xx_StdPeriph_Driver/src/stm32f4xx_rtc.c **** }
 1465              		.loc 1 1052 0
 1466 07f0 07F11007 		add	r7, r7, #16
 1467 07f4 BD46     		mov	sp, r7
 1468 07f6 80BD     		pop	{r7, pc}
 1469              	.L92:
 1470              		.align	2
 1471              	.L91:
 1472 07f8 00280040 		.word	1073752064
 1473              		.cfi_endproc
 1474              	.LFE125:
 1476              		.align	2
 1477              		.global	RTC_SetAlarm
 1478              		.thumb
 1479              		.thumb_func
 1481              	RTC_SetAlarm:
 1482              	.LFB126:
1053:../Libraries/STM32F4xx_StdPeriph_Driver/src/stm32f4xx_rtc.c **** 
1054:../Libraries/STM32F4xx_StdPeriph_Driver/src/stm32f4xx_rtc.c **** /**
1055:../Libraries/STM32F4xx_StdPeriph_Driver/src/stm32f4xx_rtc.c ****   * @}
1056:../Libraries/STM32F4xx_StdPeriph_Driver/src/stm32f4xx_rtc.c ****   */
1057:../Libraries/STM32F4xx_StdPeriph_Driver/src/stm32f4xx_rtc.c **** 
1058:../Libraries/STM32F4xx_StdPeriph_Driver/src/stm32f4xx_rtc.c **** /** @defgroup RTC_Group3 Alarms configuration functions
1059:../Libraries/STM32F4xx_StdPeriph_Driver/src/stm32f4xx_rtc.c ****  *  @brief   Alarms (Alarm A and Alarm B) configuration functions 
1060:../Libraries/STM32F4xx_StdPeriph_Driver/src/stm32f4xx_rtc.c ****  *
1061:../Libraries/STM32F4xx_StdPeriph_Driver/src/stm32f4xx_rtc.c **** @verbatim   
1062:../Libraries/STM32F4xx_StdPeriph_Driver/src/stm32f4xx_rtc.c ****  ===============================================================================
1063:../Libraries/STM32F4xx_StdPeriph_Driver/src/stm32f4xx_rtc.c ****               Alarms (Alarm A and Alarm B) configuration functions
1064:../Libraries/STM32F4xx_StdPeriph_Driver/src/stm32f4xx_rtc.c ****  ===============================================================================  
1065:../Libraries/STM32F4xx_StdPeriph_Driver/src/stm32f4xx_rtc.c **** 
1066:../Libraries/STM32F4xx_StdPeriph_Driver/src/stm32f4xx_rtc.c ****   This section provide functions allowing to program and read the RTC Alarms.
1067:../Libraries/STM32F4xx_StdPeriph_Driver/src/stm32f4xx_rtc.c **** 
1068:../Libraries/STM32F4xx_StdPeriph_Driver/src/stm32f4xx_rtc.c **** @endverbatim
1069:../Libraries/STM32F4xx_StdPeriph_Driver/src/stm32f4xx_rtc.c ****   * @{
1070:../Libraries/STM32F4xx_StdPeriph_Driver/src/stm32f4xx_rtc.c ****   */
1071:../Libraries/STM32F4xx_StdPeriph_Driver/src/stm32f4xx_rtc.c **** 
1072:../Libraries/STM32F4xx_StdPeriph_Driver/src/stm32f4xx_rtc.c **** /**
1073:../Libraries/STM32F4xx_StdPeriph_Driver/src/stm32f4xx_rtc.c ****   * @brief  Set the specified RTC Alarm.
1074:../Libraries/STM32F4xx_StdPeriph_Driver/src/stm32f4xx_rtc.c ****   * @note   The Alarm register can only be written when the corresponding Alarm
1075:../Libraries/STM32F4xx_StdPeriph_Driver/src/stm32f4xx_rtc.c ****   *         is disabled (Use the RTC_AlarmCmd(DISABLE)).    
1076:../Libraries/STM32F4xx_StdPeriph_Driver/src/stm32f4xx_rtc.c ****   * @param  RTC_Format: specifies the format of the returned parameters.
1077:../Libraries/STM32F4xx_StdPeriph_Driver/src/stm32f4xx_rtc.c ****   *          This parameter can be one of the following values:
1078:../Libraries/STM32F4xx_StdPeriph_Driver/src/stm32f4xx_rtc.c ****   *            @arg RTC_Format_BIN: Binary data format 
1079:../Libraries/STM32F4xx_StdPeriph_Driver/src/stm32f4xx_rtc.c ****   *            @arg RTC_Format_BCD: BCD data format
1080:../Libraries/STM32F4xx_StdPeriph_Driver/src/stm32f4xx_rtc.c ****   * @param  RTC_Alarm: specifies the alarm to be configured.
1081:../Libraries/STM32F4xx_StdPeriph_Driver/src/stm32f4xx_rtc.c ****   *          This parameter can be one of the following values:
1082:../Libraries/STM32F4xx_StdPeriph_Driver/src/stm32f4xx_rtc.c ****   *            @arg RTC_Alarm_A: to select Alarm A
1083:../Libraries/STM32F4xx_StdPeriph_Driver/src/stm32f4xx_rtc.c ****   *            @arg RTC_Alarm_B: to select Alarm B  
1084:../Libraries/STM32F4xx_StdPeriph_Driver/src/stm32f4xx_rtc.c ****   * @param  RTC_AlarmStruct: pointer to a RTC_AlarmTypeDef structure that 
1085:../Libraries/STM32F4xx_StdPeriph_Driver/src/stm32f4xx_rtc.c ****   *                          contains the alarm configuration parameters.     
1086:../Libraries/STM32F4xx_StdPeriph_Driver/src/stm32f4xx_rtc.c ****   * @retval None
1087:../Libraries/STM32F4xx_StdPeriph_Driver/src/stm32f4xx_rtc.c ****   */
1088:../Libraries/STM32F4xx_StdPeriph_Driver/src/stm32f4xx_rtc.c **** void RTC_SetAlarm(uint32_t RTC_Format, uint32_t RTC_Alarm, RTC_AlarmTypeDef* RTC_AlarmStruct)
1089:../Libraries/STM32F4xx_StdPeriph_Driver/src/stm32f4xx_rtc.c **** {
 1483              		.loc 1 1089 0
 1484              		.cfi_startproc
 1485              		@ args = 0, pretend = 0, frame = 24
 1486              		@ frame_needed = 1, uses_anonymous_args = 0
 1487 07fc 90B5     		push	{r4, r7, lr}
 1488              	.LCFI47:
 1489              		.cfi_def_cfa_offset 12
 1490              		.cfi_offset 4, -12
 1491              		.cfi_offset 7, -8
 1492              		.cfi_offset 14, -4
 1493 07fe 87B0     		sub	sp, sp, #28
 1494              	.LCFI48:
 1495              		.cfi_def_cfa_offset 40
 1496 0800 00AF     		add	r7, sp, #0
 1497              	.LCFI49:
 1498              		.cfi_def_cfa_register 7
 1499 0802 F860     		str	r0, [r7, #12]
 1500 0804 B960     		str	r1, [r7, #8]
 1501 0806 7A60     		str	r2, [r7, #4]
1090:../Libraries/STM32F4xx_StdPeriph_Driver/src/stm32f4xx_rtc.c ****   uint32_t tmpreg = 0;
 1502              		.loc 1 1090 0
 1503 0808 4FF00003 		mov	r3, #0
 1504 080c 7B61     		str	r3, [r7, #20]
1091:../Libraries/STM32F4xx_StdPeriph_Driver/src/stm32f4xx_rtc.c ****   
1092:../Libraries/STM32F4xx_StdPeriph_Driver/src/stm32f4xx_rtc.c ****   /* Check the parameters */
1093:../Libraries/STM32F4xx_StdPeriph_Driver/src/stm32f4xx_rtc.c ****   assert_param(IS_RTC_FORMAT(RTC_Format));
1094:../Libraries/STM32F4xx_StdPeriph_Driver/src/stm32f4xx_rtc.c ****   assert_param(IS_RTC_ALARM(RTC_Alarm));
1095:../Libraries/STM32F4xx_StdPeriph_Driver/src/stm32f4xx_rtc.c ****   assert_param(IS_ALARM_MASK(RTC_AlarmStruct->RTC_AlarmMask));
1096:../Libraries/STM32F4xx_StdPeriph_Driver/src/stm32f4xx_rtc.c ****   assert_param(IS_RTC_ALARM_DATE_WEEKDAY_SEL(RTC_AlarmStruct->RTC_AlarmDateWeekDaySel));
1097:../Libraries/STM32F4xx_StdPeriph_Driver/src/stm32f4xx_rtc.c **** 
1098:../Libraries/STM32F4xx_StdPeriph_Driver/src/stm32f4xx_rtc.c ****   if (RTC_Format == RTC_Format_BIN)
 1505              		.loc 1 1098 0
 1506 080e FB68     		ldr	r3, [r7, #12]
 1507 0810 002B     		cmp	r3, #0
 1508 0812 0AD1     		bne	.L94
1099:../Libraries/STM32F4xx_StdPeriph_Driver/src/stm32f4xx_rtc.c ****   {
1100:../Libraries/STM32F4xx_StdPeriph_Driver/src/stm32f4xx_rtc.c ****     if ((RTC->CR & RTC_CR_FMT) != (uint32_t)RESET)
 1509              		.loc 1 1100 0
 1510 0814 4D4B     		ldr	r3, .L104
 1511 0816 9B68     		ldr	r3, [r3, #8]
 1512 0818 03F04003 		and	r3, r3, #64
 1513 081c 002B     		cmp	r3, #0
 1514 081e 29D1     		bne	.L96
1101:../Libraries/STM32F4xx_StdPeriph_Driver/src/stm32f4xx_rtc.c ****     {
1102:../Libraries/STM32F4xx_StdPeriph_Driver/src/stm32f4xx_rtc.c ****       assert_param(IS_RTC_HOUR12(RTC_AlarmStruct->RTC_AlarmTime.RTC_Hours));
1103:../Libraries/STM32F4xx_StdPeriph_Driver/src/stm32f4xx_rtc.c ****       assert_param(IS_RTC_H12(RTC_AlarmStruct->RTC_AlarmTime.RTC_H12));
1104:../Libraries/STM32F4xx_StdPeriph_Driver/src/stm32f4xx_rtc.c ****     } 
1105:../Libraries/STM32F4xx_StdPeriph_Driver/src/stm32f4xx_rtc.c ****     else
1106:../Libraries/STM32F4xx_StdPeriph_Driver/src/stm32f4xx_rtc.c ****     {
1107:../Libraries/STM32F4xx_StdPeriph_Driver/src/stm32f4xx_rtc.c ****       RTC_AlarmStruct->RTC_AlarmTime.RTC_H12 = 0x00;
 1515              		.loc 1 1107 0
 1516 0820 7B68     		ldr	r3, [r7, #4]
 1517 0822 4FF00002 		mov	r2, #0
 1518 0826 DA70     		strb	r2, [r3, #3]
 1519 0828 24E0     		b	.L96
 1520              	.L94:
1108:../Libraries/STM32F4xx_StdPeriph_Driver/src/stm32f4xx_rtc.c ****       assert_param(IS_RTC_HOUR24(RTC_AlarmStruct->RTC_AlarmTime.RTC_Hours));
1109:../Libraries/STM32F4xx_StdPeriph_Driver/src/stm32f4xx_rtc.c ****     }
1110:../Libraries/STM32F4xx_StdPeriph_Driver/src/stm32f4xx_rtc.c ****     assert_param(IS_RTC_MINUTES(RTC_AlarmStruct->RTC_AlarmTime.RTC_Minutes));
1111:../Libraries/STM32F4xx_StdPeriph_Driver/src/stm32f4xx_rtc.c ****     assert_param(IS_RTC_SECONDS(RTC_AlarmStruct->RTC_AlarmTime.RTC_Seconds));
1112:../Libraries/STM32F4xx_StdPeriph_Driver/src/stm32f4xx_rtc.c ****     
1113:../Libraries/STM32F4xx_StdPeriph_Driver/src/stm32f4xx_rtc.c ****     if(RTC_AlarmStruct->RTC_AlarmDateWeekDaySel == RTC_AlarmDateWeekDaySel_Date)
1114:../Libraries/STM32F4xx_StdPeriph_Driver/src/stm32f4xx_rtc.c ****     {
1115:../Libraries/STM32F4xx_StdPeriph_Driver/src/stm32f4xx_rtc.c ****       assert_param(IS_RTC_ALARM_DATE_WEEKDAY_DATE(RTC_AlarmStruct->RTC_AlarmDateWeekDay));
1116:../Libraries/STM32F4xx_StdPeriph_Driver/src/stm32f4xx_rtc.c ****     }
1117:../Libraries/STM32F4xx_StdPeriph_Driver/src/stm32f4xx_rtc.c ****     else
1118:../Libraries/STM32F4xx_StdPeriph_Driver/src/stm32f4xx_rtc.c ****     {
1119:../Libraries/STM32F4xx_StdPeriph_Driver/src/stm32f4xx_rtc.c ****       assert_param(IS_RTC_ALARM_DATE_WEEKDAY_WEEKDAY(RTC_AlarmStruct->RTC_AlarmDateWeekDay));
1120:../Libraries/STM32F4xx_StdPeriph_Driver/src/stm32f4xx_rtc.c ****     }
1121:../Libraries/STM32F4xx_StdPeriph_Driver/src/stm32f4xx_rtc.c ****   }
1122:../Libraries/STM32F4xx_StdPeriph_Driver/src/stm32f4xx_rtc.c ****   else
1123:../Libraries/STM32F4xx_StdPeriph_Driver/src/stm32f4xx_rtc.c ****   {
1124:../Libraries/STM32F4xx_StdPeriph_Driver/src/stm32f4xx_rtc.c ****     if ((RTC->CR & RTC_CR_FMT) != (uint32_t)RESET)
 1521              		.loc 1 1124 0
 1522 082a 484B     		ldr	r3, .L104
 1523 082c 9B68     		ldr	r3, [r3, #8]
 1524 082e 03F04003 		and	r3, r3, #64
 1525 0832 002B     		cmp	r3, #0
 1526 0834 07D0     		beq	.L97
1125:../Libraries/STM32F4xx_StdPeriph_Driver/src/stm32f4xx_rtc.c ****     {
1126:../Libraries/STM32F4xx_StdPeriph_Driver/src/stm32f4xx_rtc.c ****       tmpreg = RTC_Bcd2ToByte(RTC_AlarmStruct->RTC_AlarmTime.RTC_Hours);
 1527              		.loc 1 1126 0
 1528 0836 7B68     		ldr	r3, [r7, #4]
 1529 0838 1B78     		ldrb	r3, [r3, #0]	@ zero_extendqisi2
 1530 083a 1846     		mov	r0, r3
 1531 083c 00F032FF 		bl	RTC_Bcd2ToByte
 1532 0840 0346     		mov	r3, r0
 1533 0842 7B61     		str	r3, [r7, #20]
 1534 0844 03E0     		b	.L98
 1535              	.L97:
1127:../Libraries/STM32F4xx_StdPeriph_Driver/src/stm32f4xx_rtc.c ****       assert_param(IS_RTC_HOUR12(tmpreg));
1128:../Libraries/STM32F4xx_StdPeriph_Driver/src/stm32f4xx_rtc.c ****       assert_param(IS_RTC_H12(RTC_AlarmStruct->RTC_AlarmTime.RTC_H12));
1129:../Libraries/STM32F4xx_StdPeriph_Driver/src/stm32f4xx_rtc.c ****     } 
1130:../Libraries/STM32F4xx_StdPeriph_Driver/src/stm32f4xx_rtc.c ****     else
1131:../Libraries/STM32F4xx_StdPeriph_Driver/src/stm32f4xx_rtc.c ****     {
1132:../Libraries/STM32F4xx_StdPeriph_Driver/src/stm32f4xx_rtc.c ****       RTC_AlarmStruct->RTC_AlarmTime.RTC_H12 = 0x00;
 1536              		.loc 1 1132 0
 1537 0846 7B68     		ldr	r3, [r7, #4]
 1538 0848 4FF00002 		mov	r2, #0
 1539 084c DA70     		strb	r2, [r3, #3]
 1540              	.L98:
1133:../Libraries/STM32F4xx_StdPeriph_Driver/src/stm32f4xx_rtc.c ****       assert_param(IS_RTC_HOUR24(RTC_Bcd2ToByte(RTC_AlarmStruct->RTC_AlarmTime.RTC_Hours)));
1134:../Libraries/STM32F4xx_StdPeriph_Driver/src/stm32f4xx_rtc.c ****     }
1135:../Libraries/STM32F4xx_StdPeriph_Driver/src/stm32f4xx_rtc.c ****     
1136:../Libraries/STM32F4xx_StdPeriph_Driver/src/stm32f4xx_rtc.c ****     assert_param(IS_RTC_MINUTES(RTC_Bcd2ToByte(RTC_AlarmStruct->RTC_AlarmTime.RTC_Minutes)));
1137:../Libraries/STM32F4xx_StdPeriph_Driver/src/stm32f4xx_rtc.c ****     assert_param(IS_RTC_SECONDS(RTC_Bcd2ToByte(RTC_AlarmStruct->RTC_AlarmTime.RTC_Seconds)));
1138:../Libraries/STM32F4xx_StdPeriph_Driver/src/stm32f4xx_rtc.c ****     
1139:../Libraries/STM32F4xx_StdPeriph_Driver/src/stm32f4xx_rtc.c ****     if(RTC_AlarmStruct->RTC_AlarmDateWeekDaySel == RTC_AlarmDateWeekDaySel_Date)
 1541              		.loc 1 1139 0
 1542 084e 7B68     		ldr	r3, [r7, #4]
 1543 0850 9B68     		ldr	r3, [r3, #8]
 1544 0852 002B     		cmp	r3, #0
 1545 0854 07D1     		bne	.L99
1140:../Libraries/STM32F4xx_StdPeriph_Driver/src/stm32f4xx_rtc.c ****     {
1141:../Libraries/STM32F4xx_StdPeriph_Driver/src/stm32f4xx_rtc.c ****       tmpreg = RTC_Bcd2ToByte(RTC_AlarmStruct->RTC_AlarmDateWeekDay);
 1546              		.loc 1 1141 0
 1547 0856 7B68     		ldr	r3, [r7, #4]
 1548 0858 1B7B     		ldrb	r3, [r3, #12]	@ zero_extendqisi2
 1549 085a 1846     		mov	r0, r3
 1550 085c 00F022FF 		bl	RTC_Bcd2ToByte
 1551 0860 0346     		mov	r3, r0
 1552 0862 7B61     		str	r3, [r7, #20]
 1553 0864 06E0     		b	.L96
 1554              	.L99:
1142:../Libraries/STM32F4xx_StdPeriph_Driver/src/stm32f4xx_rtc.c ****       assert_param(IS_RTC_ALARM_DATE_WEEKDAY_DATE(tmpreg));    
1143:../Libraries/STM32F4xx_StdPeriph_Driver/src/stm32f4xx_rtc.c ****     }
1144:../Libraries/STM32F4xx_StdPeriph_Driver/src/stm32f4xx_rtc.c ****     else
1145:../Libraries/STM32F4xx_StdPeriph_Driver/src/stm32f4xx_rtc.c ****     {
1146:../Libraries/STM32F4xx_StdPeriph_Driver/src/stm32f4xx_rtc.c ****       tmpreg = RTC_Bcd2ToByte(RTC_AlarmStruct->RTC_AlarmDateWeekDay);
 1555              		.loc 1 1146 0
 1556 0866 7B68     		ldr	r3, [r7, #4]
 1557 0868 1B7B     		ldrb	r3, [r3, #12]	@ zero_extendqisi2
 1558 086a 1846     		mov	r0, r3
 1559 086c 00F01AFF 		bl	RTC_Bcd2ToByte
 1560 0870 0346     		mov	r3, r0
 1561 0872 7B61     		str	r3, [r7, #20]
 1562              	.L96:
1147:../Libraries/STM32F4xx_StdPeriph_Driver/src/stm32f4xx_rtc.c ****       assert_param(IS_RTC_ALARM_DATE_WEEKDAY_WEEKDAY(tmpreg));      
1148:../Libraries/STM32F4xx_StdPeriph_Driver/src/stm32f4xx_rtc.c ****     }    
1149:../Libraries/STM32F4xx_StdPeriph_Driver/src/stm32f4xx_rtc.c ****   }
1150:../Libraries/STM32F4xx_StdPeriph_Driver/src/stm32f4xx_rtc.c **** 
1151:../Libraries/STM32F4xx_StdPeriph_Driver/src/stm32f4xx_rtc.c ****   /* Check the input parameters format */
1152:../Libraries/STM32F4xx_StdPeriph_Driver/src/stm32f4xx_rtc.c ****   if (RTC_Format != RTC_Format_BIN)
 1563              		.loc 1 1152 0
 1564 0874 FB68     		ldr	r3, [r7, #12]
 1565 0876 002B     		cmp	r3, #0
 1566 0878 1DD0     		beq	.L100
1153:../Libraries/STM32F4xx_StdPeriph_Driver/src/stm32f4xx_rtc.c ****   {
1154:../Libraries/STM32F4xx_StdPeriph_Driver/src/stm32f4xx_rtc.c ****     tmpreg = (((uint32_t)(RTC_AlarmStruct->RTC_AlarmTime.RTC_Hours) << 16) | \
 1567              		.loc 1 1154 0
 1568 087a 7B68     		ldr	r3, [r7, #4]
 1569 087c 1B78     		ldrb	r3, [r3, #0]	@ zero_extendqisi2
 1570 087e 4FEA0342 		lsl	r2, r3, #16
1155:../Libraries/STM32F4xx_StdPeriph_Driver/src/stm32f4xx_rtc.c ****               ((uint32_t)(RTC_AlarmStruct->RTC_AlarmTime.RTC_Minutes) << 8) | \
 1571              		.loc 1 1155 0
 1572 0882 7B68     		ldr	r3, [r7, #4]
 1573 0884 5B78     		ldrb	r3, [r3, #1]	@ zero_extendqisi2
 1574 0886 4FEA0323 		lsl	r3, r3, #8
1154:../Libraries/STM32F4xx_StdPeriph_Driver/src/stm32f4xx_rtc.c ****     tmpreg = (((uint32_t)(RTC_AlarmStruct->RTC_AlarmTime.RTC_Hours) << 16) | \
 1575              		.loc 1 1154 0
 1576 088a 1A43     		orrs	r2, r2, r3
1156:../Libraries/STM32F4xx_StdPeriph_Driver/src/stm32f4xx_rtc.c ****               ((uint32_t)RTC_AlarmStruct->RTC_AlarmTime.RTC_Seconds) | \
 1577              		.loc 1 1156 0
 1578 088c 7B68     		ldr	r3, [r7, #4]
 1579 088e 9B78     		ldrb	r3, [r3, #2]	@ zero_extendqisi2
1155:../Libraries/STM32F4xx_StdPeriph_Driver/src/stm32f4xx_rtc.c ****               ((uint32_t)(RTC_AlarmStruct->RTC_AlarmTime.RTC_Minutes) << 8) | \
 1580              		.loc 1 1155 0
 1581 0890 1A43     		orrs	r2, r2, r3
1157:../Libraries/STM32F4xx_StdPeriph_Driver/src/stm32f4xx_rtc.c ****               ((uint32_t)(RTC_AlarmStruct->RTC_AlarmTime.RTC_H12) << 16) | \
 1582              		.loc 1 1157 0
 1583 0892 7B68     		ldr	r3, [r7, #4]
 1584 0894 DB78     		ldrb	r3, [r3, #3]	@ zero_extendqisi2
 1585 0896 4FEA0343 		lsl	r3, r3, #16
1156:../Libraries/STM32F4xx_StdPeriph_Driver/src/stm32f4xx_rtc.c ****               ((uint32_t)RTC_AlarmStruct->RTC_AlarmTime.RTC_Seconds) | \
 1586              		.loc 1 1156 0
 1587 089a 1A43     		orrs	r2, r2, r3
1158:../Libraries/STM32F4xx_StdPeriph_Driver/src/stm32f4xx_rtc.c ****               ((uint32_t)(RTC_AlarmStruct->RTC_AlarmDateWeekDay) << 24) | \
 1588              		.loc 1 1158 0
 1589 089c 7B68     		ldr	r3, [r7, #4]
 1590 089e 1B7B     		ldrb	r3, [r3, #12]	@ zero_extendqisi2
 1591 08a0 4FEA0363 		lsl	r3, r3, #24
1157:../Libraries/STM32F4xx_StdPeriph_Driver/src/stm32f4xx_rtc.c ****               ((uint32_t)(RTC_AlarmStruct->RTC_AlarmTime.RTC_H12) << 16) | \
 1592              		.loc 1 1157 0
 1593 08a4 1A43     		orrs	r2, r2, r3
1159:../Libraries/STM32F4xx_StdPeriph_Driver/src/stm32f4xx_rtc.c ****               ((uint32_t)RTC_AlarmStruct->RTC_AlarmDateWeekDaySel) | \
 1594              		.loc 1 1159 0
 1595 08a6 7B68     		ldr	r3, [r7, #4]
 1596 08a8 9B68     		ldr	r3, [r3, #8]
1158:../Libraries/STM32F4xx_StdPeriph_Driver/src/stm32f4xx_rtc.c ****               ((uint32_t)(RTC_AlarmStruct->RTC_AlarmDateWeekDay) << 24) | \
 1597              		.loc 1 1158 0
 1598 08aa 1A43     		orrs	r2, r2, r3
1160:../Libraries/STM32F4xx_StdPeriph_Driver/src/stm32f4xx_rtc.c ****               ((uint32_t)RTC_AlarmStruct->RTC_AlarmMask)); 
 1599              		.loc 1 1160 0
 1600 08ac 7B68     		ldr	r3, [r7, #4]
 1601 08ae 5B68     		ldr	r3, [r3, #4]
1154:../Libraries/STM32F4xx_StdPeriph_Driver/src/stm32f4xx_rtc.c ****     tmpreg = (((uint32_t)(RTC_AlarmStruct->RTC_AlarmTime.RTC_Hours) << 16) | \
 1602              		.loc 1 1154 0
 1603 08b0 1343     		orrs	r3, r3, r2
 1604 08b2 7B61     		str	r3, [r7, #20]
 1605 08b4 2FE0     		b	.L101
 1606              	.L100:
1161:../Libraries/STM32F4xx_StdPeriph_Driver/src/stm32f4xx_rtc.c ****   }  
1162:../Libraries/STM32F4xx_StdPeriph_Driver/src/stm32f4xx_rtc.c ****   else
1163:../Libraries/STM32F4xx_StdPeriph_Driver/src/stm32f4xx_rtc.c ****   {
1164:../Libraries/STM32F4xx_StdPeriph_Driver/src/stm32f4xx_rtc.c ****     tmpreg = (((uint32_t)RTC_ByteToBcd2(RTC_AlarmStruct->RTC_AlarmTime.RTC_Hours) << 16) | \
 1607              		.loc 1 1164 0
 1608 08b6 7B68     		ldr	r3, [r7, #4]
 1609 08b8 1B78     		ldrb	r3, [r3, #0]	@ zero_extendqisi2
 1610 08ba 1846     		mov	r0, r3
 1611 08bc 00F0D0FE 		bl	RTC_ByteToBcd2
 1612 08c0 0346     		mov	r3, r0
 1613 08c2 4FEA0344 		lsl	r4, r3, #16
1165:../Libraries/STM32F4xx_StdPeriph_Driver/src/stm32f4xx_rtc.c ****               ((uint32_t)RTC_ByteToBcd2(RTC_AlarmStruct->RTC_AlarmTime.RTC_Minutes) << 8) | \
 1614              		.loc 1 1165 0
 1615 08c6 7B68     		ldr	r3, [r7, #4]
 1616 08c8 5B78     		ldrb	r3, [r3, #1]	@ zero_extendqisi2
 1617 08ca 1846     		mov	r0, r3
 1618 08cc 00F0C8FE 		bl	RTC_ByteToBcd2
 1619 08d0 0346     		mov	r3, r0
 1620 08d2 4FEA0323 		lsl	r3, r3, #8
1164:../Libraries/STM32F4xx_StdPeriph_Driver/src/stm32f4xx_rtc.c ****     tmpreg = (((uint32_t)RTC_ByteToBcd2(RTC_AlarmStruct->RTC_AlarmTime.RTC_Hours) << 16) | \
 1621              		.loc 1 1164 0
 1622 08d6 1C43     		orrs	r4, r4, r3
1166:../Libraries/STM32F4xx_StdPeriph_Driver/src/stm32f4xx_rtc.c ****               ((uint32_t)RTC_ByteToBcd2(RTC_AlarmStruct->RTC_AlarmTime.RTC_Seconds)) | \
 1623              		.loc 1 1166 0
 1624 08d8 7B68     		ldr	r3, [r7, #4]
 1625 08da 9B78     		ldrb	r3, [r3, #2]	@ zero_extendqisi2
 1626 08dc 1846     		mov	r0, r3
 1627 08de 00F0BFFE 		bl	RTC_ByteToBcd2
 1628 08e2 0346     		mov	r3, r0
1165:../Libraries/STM32F4xx_StdPeriph_Driver/src/stm32f4xx_rtc.c ****               ((uint32_t)RTC_ByteToBcd2(RTC_AlarmStruct->RTC_AlarmTime.RTC_Minutes) << 8) | \
 1629              		.loc 1 1165 0
 1630 08e4 44EA0302 		orr	r2, r4, r3
1167:../Libraries/STM32F4xx_StdPeriph_Driver/src/stm32f4xx_rtc.c ****               ((uint32_t)(RTC_AlarmStruct->RTC_AlarmTime.RTC_H12) << 16) | \
 1631              		.loc 1 1167 0
 1632 08e8 7B68     		ldr	r3, [r7, #4]
 1633 08ea DB78     		ldrb	r3, [r3, #3]	@ zero_extendqisi2
 1634 08ec 4FEA0343 		lsl	r3, r3, #16
1166:../Libraries/STM32F4xx_StdPeriph_Driver/src/stm32f4xx_rtc.c ****               ((uint32_t)RTC_ByteToBcd2(RTC_AlarmStruct->RTC_AlarmTime.RTC_Seconds)) | \
 1635              		.loc 1 1166 0
 1636 08f0 42EA0304 		orr	r4, r2, r3
1168:../Libraries/STM32F4xx_StdPeriph_Driver/src/stm32f4xx_rtc.c ****               ((uint32_t)RTC_ByteToBcd2(RTC_AlarmStruct->RTC_AlarmDateWeekDay) << 24) | \
 1637              		.loc 1 1168 0
 1638 08f4 7B68     		ldr	r3, [r7, #4]
 1639 08f6 1B7B     		ldrb	r3, [r3, #12]	@ zero_extendqisi2
 1640 08f8 1846     		mov	r0, r3
 1641 08fa 00F0B1FE 		bl	RTC_ByteToBcd2
 1642 08fe 0346     		mov	r3, r0
 1643 0900 4FEA0363 		lsl	r3, r3, #24
1167:../Libraries/STM32F4xx_StdPeriph_Driver/src/stm32f4xx_rtc.c ****               ((uint32_t)(RTC_AlarmStruct->RTC_AlarmTime.RTC_H12) << 16) | \
 1644              		.loc 1 1167 0
 1645 0904 44EA0302 		orr	r2, r4, r3
1169:../Libraries/STM32F4xx_StdPeriph_Driver/src/stm32f4xx_rtc.c ****               ((uint32_t)RTC_AlarmStruct->RTC_AlarmDateWeekDaySel) | \
 1646              		.loc 1 1169 0
 1647 0908 7B68     		ldr	r3, [r7, #4]
 1648 090a 9B68     		ldr	r3, [r3, #8]
1168:../Libraries/STM32F4xx_StdPeriph_Driver/src/stm32f4xx_rtc.c ****               ((uint32_t)RTC_ByteToBcd2(RTC_AlarmStruct->RTC_AlarmDateWeekDay) << 24) | \
 1649              		.loc 1 1168 0
 1650 090c 1A43     		orrs	r2, r2, r3
1170:../Libraries/STM32F4xx_StdPeriph_Driver/src/stm32f4xx_rtc.c ****               ((uint32_t)RTC_AlarmStruct->RTC_AlarmMask)); 
 1651              		.loc 1 1170 0
 1652 090e 7B68     		ldr	r3, [r7, #4]
 1653 0910 5B68     		ldr	r3, [r3, #4]
1164:../Libraries/STM32F4xx_StdPeriph_Driver/src/stm32f4xx_rtc.c ****     tmpreg = (((uint32_t)RTC_ByteToBcd2(RTC_AlarmStruct->RTC_AlarmTime.RTC_Hours) << 16) | \
 1654              		.loc 1 1164 0
 1655 0912 1343     		orrs	r3, r3, r2
 1656 0914 7B61     		str	r3, [r7, #20]
 1657              	.L101:
1171:../Libraries/STM32F4xx_StdPeriph_Driver/src/stm32f4xx_rtc.c ****   } 
1172:../Libraries/STM32F4xx_StdPeriph_Driver/src/stm32f4xx_rtc.c **** 
1173:../Libraries/STM32F4xx_StdPeriph_Driver/src/stm32f4xx_rtc.c ****   /* Disable the write protection for RTC registers */
1174:../Libraries/STM32F4xx_StdPeriph_Driver/src/stm32f4xx_rtc.c ****   RTC->WPR = 0xCA;
 1658              		.loc 1 1174 0
 1659 0916 0D4B     		ldr	r3, .L104
 1660 0918 4FF0CA02 		mov	r2, #202
 1661 091c 5A62     		str	r2, [r3, #36]
1175:../Libraries/STM32F4xx_StdPeriph_Driver/src/stm32f4xx_rtc.c ****   RTC->WPR = 0x53;
 1662              		.loc 1 1175 0
 1663 091e 0B4B     		ldr	r3, .L104
 1664 0920 4FF05302 		mov	r2, #83
 1665 0924 5A62     		str	r2, [r3, #36]
1176:../Libraries/STM32F4xx_StdPeriph_Driver/src/stm32f4xx_rtc.c **** 
1177:../Libraries/STM32F4xx_StdPeriph_Driver/src/stm32f4xx_rtc.c ****   /* Configure the Alarm register */
1178:../Libraries/STM32F4xx_StdPeriph_Driver/src/stm32f4xx_rtc.c ****   if (RTC_Alarm == RTC_Alarm_A)
 1666              		.loc 1 1178 0
 1667 0926 BB68     		ldr	r3, [r7, #8]
 1668 0928 B3F5807F 		cmp	r3, #256
 1669 092c 03D1     		bne	.L102
1179:../Libraries/STM32F4xx_StdPeriph_Driver/src/stm32f4xx_rtc.c ****   {
1180:../Libraries/STM32F4xx_StdPeriph_Driver/src/stm32f4xx_rtc.c ****     RTC->ALRMAR = (uint32_t)tmpreg;
 1670              		.loc 1 1180 0
 1671 092e 074B     		ldr	r3, .L104
 1672 0930 7A69     		ldr	r2, [r7, #20]
 1673 0932 DA61     		str	r2, [r3, #28]
 1674 0934 02E0     		b	.L103
 1675              	.L102:
1181:../Libraries/STM32F4xx_StdPeriph_Driver/src/stm32f4xx_rtc.c ****   }
1182:../Libraries/STM32F4xx_StdPeriph_Driver/src/stm32f4xx_rtc.c ****   else
1183:../Libraries/STM32F4xx_StdPeriph_Driver/src/stm32f4xx_rtc.c ****   {
1184:../Libraries/STM32F4xx_StdPeriph_Driver/src/stm32f4xx_rtc.c ****     RTC->ALRMBR = (uint32_t)tmpreg;
 1676              		.loc 1 1184 0
 1677 0936 054B     		ldr	r3, .L104
 1678 0938 7A69     		ldr	r2, [r7, #20]
 1679 093a 1A62     		str	r2, [r3, #32]
 1680              	.L103:
1185:../Libraries/STM32F4xx_StdPeriph_Driver/src/stm32f4xx_rtc.c ****   }
1186:../Libraries/STM32F4xx_StdPeriph_Driver/src/stm32f4xx_rtc.c **** 
1187:../Libraries/STM32F4xx_StdPeriph_Driver/src/stm32f4xx_rtc.c ****   /* Enable the write protection for RTC registers */
1188:../Libraries/STM32F4xx_StdPeriph_Driver/src/stm32f4xx_rtc.c ****   RTC->WPR = 0xFF;   
 1681              		.loc 1 1188 0
 1682 093c 034B     		ldr	r3, .L104
 1683 093e 4FF0FF02 		mov	r2, #255
 1684 0942 5A62     		str	r2, [r3, #36]
1189:../Libraries/STM32F4xx_StdPeriph_Driver/src/stm32f4xx_rtc.c **** }
 1685              		.loc 1 1189 0
 1686 0944 07F11C07 		add	r7, r7, #28
 1687 0948 BD46     		mov	sp, r7
 1688 094a 90BD     		pop	{r4, r7, pc}
 1689              	.L105:
 1690              		.align	2
 1691              	.L104:
 1692 094c 00280040 		.word	1073752064
 1693              		.cfi_endproc
 1694              	.LFE126:
 1696              		.align	2
 1697              		.global	RTC_AlarmStructInit
 1698              		.thumb
 1699              		.thumb_func
 1701              	RTC_AlarmStructInit:
 1702              	.LFB127:
1190:../Libraries/STM32F4xx_StdPeriph_Driver/src/stm32f4xx_rtc.c **** 
1191:../Libraries/STM32F4xx_StdPeriph_Driver/src/stm32f4xx_rtc.c **** /**
1192:../Libraries/STM32F4xx_StdPeriph_Driver/src/stm32f4xx_rtc.c ****   * @brief  Fills each RTC_AlarmStruct member with its default value
1193:../Libraries/STM32F4xx_StdPeriph_Driver/src/stm32f4xx_rtc.c ****   *         (Time = 00h:00mn:00sec / Date = 1st day of the month/Mask =
1194:../Libraries/STM32F4xx_StdPeriph_Driver/src/stm32f4xx_rtc.c ****   *         all fields are masked).
1195:../Libraries/STM32F4xx_StdPeriph_Driver/src/stm32f4xx_rtc.c ****   * @param  RTC_AlarmStruct: pointer to a @ref RTC_AlarmTypeDef structure which
1196:../Libraries/STM32F4xx_StdPeriph_Driver/src/stm32f4xx_rtc.c ****   *         will be initialized.
1197:../Libraries/STM32F4xx_StdPeriph_Driver/src/stm32f4xx_rtc.c ****   * @retval None
1198:../Libraries/STM32F4xx_StdPeriph_Driver/src/stm32f4xx_rtc.c ****   */
1199:../Libraries/STM32F4xx_StdPeriph_Driver/src/stm32f4xx_rtc.c **** void RTC_AlarmStructInit(RTC_AlarmTypeDef* RTC_AlarmStruct)
1200:../Libraries/STM32F4xx_StdPeriph_Driver/src/stm32f4xx_rtc.c **** {
 1703              		.loc 1 1200 0
 1704              		.cfi_startproc
 1705              		@ args = 0, pretend = 0, frame = 8
 1706              		@ frame_needed = 1, uses_anonymous_args = 0
 1707              		@ link register save eliminated.
 1708 0950 80B4     		push	{r7}
 1709              	.LCFI50:
 1710              		.cfi_def_cfa_offset 4
 1711              		.cfi_offset 7, -4
 1712 0952 83B0     		sub	sp, sp, #12
 1713              	.LCFI51:
 1714              		.cfi_def_cfa_offset 16
 1715 0954 00AF     		add	r7, sp, #0
 1716              	.LCFI52:
 1717              		.cfi_def_cfa_register 7
 1718 0956 7860     		str	r0, [r7, #4]
1201:../Libraries/STM32F4xx_StdPeriph_Driver/src/stm32f4xx_rtc.c ****   /* Alarm Time Settings : Time = 00h:00mn:00sec */
1202:../Libraries/STM32F4xx_StdPeriph_Driver/src/stm32f4xx_rtc.c ****   RTC_AlarmStruct->RTC_AlarmTime.RTC_H12 = RTC_H12_AM;
 1719              		.loc 1 1202 0
 1720 0958 7B68     		ldr	r3, [r7, #4]
 1721 095a 4FF00002 		mov	r2, #0
 1722 095e DA70     		strb	r2, [r3, #3]
1203:../Libraries/STM32F4xx_StdPeriph_Driver/src/stm32f4xx_rtc.c ****   RTC_AlarmStruct->RTC_AlarmTime.RTC_Hours = 0;
 1723              		.loc 1 1203 0
 1724 0960 7B68     		ldr	r3, [r7, #4]
 1725 0962 4FF00002 		mov	r2, #0
 1726 0966 1A70     		strb	r2, [r3, #0]
1204:../Libraries/STM32F4xx_StdPeriph_Driver/src/stm32f4xx_rtc.c ****   RTC_AlarmStruct->RTC_AlarmTime.RTC_Minutes = 0;
 1727              		.loc 1 1204 0
 1728 0968 7B68     		ldr	r3, [r7, #4]
 1729 096a 4FF00002 		mov	r2, #0
 1730 096e 5A70     		strb	r2, [r3, #1]
1205:../Libraries/STM32F4xx_StdPeriph_Driver/src/stm32f4xx_rtc.c ****   RTC_AlarmStruct->RTC_AlarmTime.RTC_Seconds = 0;
 1731              		.loc 1 1205 0
 1732 0970 7B68     		ldr	r3, [r7, #4]
 1733 0972 4FF00002 		mov	r2, #0
 1734 0976 9A70     		strb	r2, [r3, #2]
1206:../Libraries/STM32F4xx_StdPeriph_Driver/src/stm32f4xx_rtc.c **** 
1207:../Libraries/STM32F4xx_StdPeriph_Driver/src/stm32f4xx_rtc.c ****   /* Alarm Date Settings : Date = 1st day of the month */
1208:../Libraries/STM32F4xx_StdPeriph_Driver/src/stm32f4xx_rtc.c ****   RTC_AlarmStruct->RTC_AlarmDateWeekDaySel = RTC_AlarmDateWeekDaySel_Date;
 1735              		.loc 1 1208 0
 1736 0978 7B68     		ldr	r3, [r7, #4]
 1737 097a 4FF00002 		mov	r2, #0
 1738 097e 9A60     		str	r2, [r3, #8]
1209:../Libraries/STM32F4xx_StdPeriph_Driver/src/stm32f4xx_rtc.c ****   RTC_AlarmStruct->RTC_AlarmDateWeekDay = 1;
 1739              		.loc 1 1209 0
 1740 0980 7B68     		ldr	r3, [r7, #4]
 1741 0982 4FF00102 		mov	r2, #1
 1742 0986 1A73     		strb	r2, [r3, #12]
1210:../Libraries/STM32F4xx_StdPeriph_Driver/src/stm32f4xx_rtc.c **** 
1211:../Libraries/STM32F4xx_StdPeriph_Driver/src/stm32f4xx_rtc.c ****   /* Alarm Masks Settings : Mask =  all fields are not masked */
1212:../Libraries/STM32F4xx_StdPeriph_Driver/src/stm32f4xx_rtc.c ****   RTC_AlarmStruct->RTC_AlarmMask = RTC_AlarmMask_None;
 1743              		.loc 1 1212 0
 1744 0988 7B68     		ldr	r3, [r7, #4]
 1745 098a 4FF00002 		mov	r2, #0
 1746 098e 5A60     		str	r2, [r3, #4]
1213:../Libraries/STM32F4xx_StdPeriph_Driver/src/stm32f4xx_rtc.c **** }
 1747              		.loc 1 1213 0
 1748 0990 07F10C07 		add	r7, r7, #12
 1749 0994 BD46     		mov	sp, r7
 1750 0996 80BC     		pop	{r7}
 1751 0998 7047     		bx	lr
 1752              		.cfi_endproc
 1753              	.LFE127:
 1755 099a 00BF     		.align	2
 1756              		.global	RTC_GetAlarm
 1757              		.thumb
 1758              		.thumb_func
 1760              	RTC_GetAlarm:
 1761              	.LFB128:
1214:../Libraries/STM32F4xx_StdPeriph_Driver/src/stm32f4xx_rtc.c **** 
1215:../Libraries/STM32F4xx_StdPeriph_Driver/src/stm32f4xx_rtc.c **** /**
1216:../Libraries/STM32F4xx_StdPeriph_Driver/src/stm32f4xx_rtc.c ****   * @brief  Get the RTC Alarm value and masks.
1217:../Libraries/STM32F4xx_StdPeriph_Driver/src/stm32f4xx_rtc.c ****   * @param  RTC_Format: specifies the format of the output parameters.
1218:../Libraries/STM32F4xx_StdPeriph_Driver/src/stm32f4xx_rtc.c ****   *          This parameter can be one of the following values:
1219:../Libraries/STM32F4xx_StdPeriph_Driver/src/stm32f4xx_rtc.c ****   *            @arg RTC_Format_BIN: Binary data format 
1220:../Libraries/STM32F4xx_StdPeriph_Driver/src/stm32f4xx_rtc.c ****   *            @arg RTC_Format_BCD: BCD data format
1221:../Libraries/STM32F4xx_StdPeriph_Driver/src/stm32f4xx_rtc.c ****   * @param  RTC_Alarm: specifies the alarm to be read.
1222:../Libraries/STM32F4xx_StdPeriph_Driver/src/stm32f4xx_rtc.c ****   *          This parameter can be one of the following values:
1223:../Libraries/STM32F4xx_StdPeriph_Driver/src/stm32f4xx_rtc.c ****   *            @arg RTC_Alarm_A: to select Alarm A
1224:../Libraries/STM32F4xx_StdPeriph_Driver/src/stm32f4xx_rtc.c ****   *            @arg RTC_Alarm_B: to select Alarm B  
1225:../Libraries/STM32F4xx_StdPeriph_Driver/src/stm32f4xx_rtc.c ****   * @param  RTC_AlarmStruct: pointer to a RTC_AlarmTypeDef structure that will 
1226:../Libraries/STM32F4xx_StdPeriph_Driver/src/stm32f4xx_rtc.c ****   *                          contains the output alarm configuration values.     
1227:../Libraries/STM32F4xx_StdPeriph_Driver/src/stm32f4xx_rtc.c ****   * @retval None
1228:../Libraries/STM32F4xx_StdPeriph_Driver/src/stm32f4xx_rtc.c ****   */
1229:../Libraries/STM32F4xx_StdPeriph_Driver/src/stm32f4xx_rtc.c **** void RTC_GetAlarm(uint32_t RTC_Format, uint32_t RTC_Alarm, RTC_AlarmTypeDef* RTC_AlarmStruct)
1230:../Libraries/STM32F4xx_StdPeriph_Driver/src/stm32f4xx_rtc.c **** {
 1762              		.loc 1 1230 0
 1763              		.cfi_startproc
 1764              		@ args = 0, pretend = 0, frame = 24
 1765              		@ frame_needed = 1, uses_anonymous_args = 0
 1766 099c 80B5     		push	{r7, lr}
 1767              	.LCFI53:
 1768              		.cfi_def_cfa_offset 8
 1769              		.cfi_offset 7, -8
 1770              		.cfi_offset 14, -4
 1771 099e 86B0     		sub	sp, sp, #24
 1772              	.LCFI54:
 1773              		.cfi_def_cfa_offset 32
 1774 09a0 00AF     		add	r7, sp, #0
 1775              	.LCFI55:
 1776              		.cfi_def_cfa_register 7
 1777 09a2 F860     		str	r0, [r7, #12]
 1778 09a4 B960     		str	r1, [r7, #8]
 1779 09a6 7A60     		str	r2, [r7, #4]
1231:../Libraries/STM32F4xx_StdPeriph_Driver/src/stm32f4xx_rtc.c ****   uint32_t tmpreg = 0;
 1780              		.loc 1 1231 0
 1781 09a8 4FF00003 		mov	r3, #0
 1782 09ac 7B61     		str	r3, [r7, #20]
1232:../Libraries/STM32F4xx_StdPeriph_Driver/src/stm32f4xx_rtc.c **** 
1233:../Libraries/STM32F4xx_StdPeriph_Driver/src/stm32f4xx_rtc.c ****   /* Check the parameters */
1234:../Libraries/STM32F4xx_StdPeriph_Driver/src/stm32f4xx_rtc.c ****   assert_param(IS_RTC_FORMAT(RTC_Format));
1235:../Libraries/STM32F4xx_StdPeriph_Driver/src/stm32f4xx_rtc.c ****   assert_param(IS_RTC_ALARM(RTC_Alarm)); 
1236:../Libraries/STM32F4xx_StdPeriph_Driver/src/stm32f4xx_rtc.c **** 
1237:../Libraries/STM32F4xx_StdPeriph_Driver/src/stm32f4xx_rtc.c ****   /* Get the RTC_ALRMxR register */
1238:../Libraries/STM32F4xx_StdPeriph_Driver/src/stm32f4xx_rtc.c ****   if (RTC_Alarm == RTC_Alarm_A)
 1783              		.loc 1 1238 0
 1784 09ae BB68     		ldr	r3, [r7, #8]
 1785 09b0 B3F5807F 		cmp	r3, #256
 1786 09b4 03D1     		bne	.L108
1239:../Libraries/STM32F4xx_StdPeriph_Driver/src/stm32f4xx_rtc.c ****   {
1240:../Libraries/STM32F4xx_StdPeriph_Driver/src/stm32f4xx_rtc.c ****     tmpreg = (uint32_t)(RTC->ALRMAR);
 1787              		.loc 1 1240 0
 1788 09b6 314B     		ldr	r3, .L111
 1789 09b8 DB69     		ldr	r3, [r3, #28]
 1790 09ba 7B61     		str	r3, [r7, #20]
 1791 09bc 02E0     		b	.L109
 1792              	.L108:
1241:../Libraries/STM32F4xx_StdPeriph_Driver/src/stm32f4xx_rtc.c ****   }
1242:../Libraries/STM32F4xx_StdPeriph_Driver/src/stm32f4xx_rtc.c ****   else
1243:../Libraries/STM32F4xx_StdPeriph_Driver/src/stm32f4xx_rtc.c ****   {
1244:../Libraries/STM32F4xx_StdPeriph_Driver/src/stm32f4xx_rtc.c ****     tmpreg = (uint32_t)(RTC->ALRMBR);
 1793              		.loc 1 1244 0
 1794 09be 2F4B     		ldr	r3, .L111
 1795 09c0 1B6A     		ldr	r3, [r3, #32]
 1796 09c2 7B61     		str	r3, [r7, #20]
 1797              	.L109:
1245:../Libraries/STM32F4xx_StdPeriph_Driver/src/stm32f4xx_rtc.c ****   }
1246:../Libraries/STM32F4xx_StdPeriph_Driver/src/stm32f4xx_rtc.c **** 
1247:../Libraries/STM32F4xx_StdPeriph_Driver/src/stm32f4xx_rtc.c ****   /* Fill the structure with the read parameters */
1248:../Libraries/STM32F4xx_StdPeriph_Driver/src/stm32f4xx_rtc.c ****   RTC_AlarmStruct->RTC_AlarmTime.RTC_Hours = (uint32_t)((tmpreg & (RTC_ALRMAR_HT | \
 1798              		.loc 1 1248 0
 1799 09c4 7B69     		ldr	r3, [r7, #20]
 1800 09c6 03F47C13 		and	r3, r3, #4128768
 1801 09ca 4FEA1343 		lsr	r3, r3, #16
 1802 09ce DAB2     		uxtb	r2, r3
 1803 09d0 7B68     		ldr	r3, [r7, #4]
 1804 09d2 1A70     		strb	r2, [r3, #0]
1249:../Libraries/STM32F4xx_StdPeriph_Driver/src/stm32f4xx_rtc.c ****                                                      RTC_ALRMAR_HU)) >> 16);
1250:../Libraries/STM32F4xx_StdPeriph_Driver/src/stm32f4xx_rtc.c ****   RTC_AlarmStruct->RTC_AlarmTime.RTC_Minutes = (uint32_t)((tmpreg & (RTC_ALRMAR_MNT | \
 1805              		.loc 1 1250 0
 1806 09d4 7B69     		ldr	r3, [r7, #20]
 1807 09d6 03F4FE43 		and	r3, r3, #32512
 1808 09da 4FEA1323 		lsr	r3, r3, #8
 1809 09de DAB2     		uxtb	r2, r3
 1810 09e0 7B68     		ldr	r3, [r7, #4]
 1811 09e2 5A70     		strb	r2, [r3, #1]
1251:../Libraries/STM32F4xx_StdPeriph_Driver/src/stm32f4xx_rtc.c ****                                                      RTC_ALRMAR_MNU)) >> 8);
1252:../Libraries/STM32F4xx_StdPeriph_Driver/src/stm32f4xx_rtc.c ****   RTC_AlarmStruct->RTC_AlarmTime.RTC_Seconds = (uint32_t)(tmpreg & (RTC_ALRMAR_ST | \
 1812              		.loc 1 1252 0
 1813 09e4 7B69     		ldr	r3, [r7, #20]
 1814 09e6 DBB2     		uxtb	r3, r3
 1815 09e8 03F07F03 		and	r3, r3, #127
 1816 09ec DAB2     		uxtb	r2, r3
 1817 09ee 7B68     		ldr	r3, [r7, #4]
 1818 09f0 9A70     		strb	r2, [r3, #2]
1253:../Libraries/STM32F4xx_StdPeriph_Driver/src/stm32f4xx_rtc.c ****                                                      RTC_ALRMAR_SU));
1254:../Libraries/STM32F4xx_StdPeriph_Driver/src/stm32f4xx_rtc.c ****   RTC_AlarmStruct->RTC_AlarmTime.RTC_H12 = (uint32_t)((tmpreg & RTC_ALRMAR_PM) >> 16);
 1819              		.loc 1 1254 0
 1820 09f2 7B69     		ldr	r3, [r7, #20]
 1821 09f4 03F48003 		and	r3, r3, #4194304
 1822 09f8 4FEA1343 		lsr	r3, r3, #16
 1823 09fc DAB2     		uxtb	r2, r3
 1824 09fe 7B68     		ldr	r3, [r7, #4]
 1825 0a00 DA70     		strb	r2, [r3, #3]
1255:../Libraries/STM32F4xx_StdPeriph_Driver/src/stm32f4xx_rtc.c ****   RTC_AlarmStruct->RTC_AlarmDateWeekDay = (uint32_t)((tmpreg & (RTC_ALRMAR_DT | RTC_ALRMAR_DU)) >> 
 1826              		.loc 1 1255 0
 1827 0a02 7B69     		ldr	r3, [r7, #20]
 1828 0a04 03F07C53 		and	r3, r3, #1056964608
 1829 0a08 4FEA1363 		lsr	r3, r3, #24
 1830 0a0c DAB2     		uxtb	r2, r3
 1831 0a0e 7B68     		ldr	r3, [r7, #4]
 1832 0a10 1A73     		strb	r2, [r3, #12]
1256:../Libraries/STM32F4xx_StdPeriph_Driver/src/stm32f4xx_rtc.c ****   RTC_AlarmStruct->RTC_AlarmDateWeekDaySel = (uint32_t)(tmpreg & RTC_ALRMAR_WDSEL);
 1833              		.loc 1 1256 0
 1834 0a12 7B69     		ldr	r3, [r7, #20]
 1835 0a14 03F08042 		and	r2, r3, #1073741824
 1836 0a18 7B68     		ldr	r3, [r7, #4]
 1837 0a1a 9A60     		str	r2, [r3, #8]
1257:../Libraries/STM32F4xx_StdPeriph_Driver/src/stm32f4xx_rtc.c ****   RTC_AlarmStruct->RTC_AlarmMask = (uint32_t)(tmpreg & RTC_AlarmMask_All);
 1838              		.loc 1 1257 0
 1839 0a1c 7B69     		ldr	r3, [r7, #20]
 1840 0a1e 03F08032 		and	r2, r3, #-2139062144
 1841 0a22 7B68     		ldr	r3, [r7, #4]
 1842 0a24 5A60     		str	r2, [r3, #4]
1258:../Libraries/STM32F4xx_StdPeriph_Driver/src/stm32f4xx_rtc.c **** 
1259:../Libraries/STM32F4xx_StdPeriph_Driver/src/stm32f4xx_rtc.c ****   if (RTC_Format == RTC_Format_BIN)
 1843              		.loc 1 1259 0
 1844 0a26 FB68     		ldr	r3, [r7, #12]
 1845 0a28 002B     		cmp	r3, #0
 1846 0a2a 23D1     		bne	.L107
1260:../Libraries/STM32F4xx_StdPeriph_Driver/src/stm32f4xx_rtc.c ****   {
1261:../Libraries/STM32F4xx_StdPeriph_Driver/src/stm32f4xx_rtc.c ****     RTC_AlarmStruct->RTC_AlarmTime.RTC_Hours = RTC_Bcd2ToByte(RTC_AlarmStruct-> \
 1847              		.loc 1 1261 0
 1848 0a2c 7B68     		ldr	r3, [r7, #4]
 1849 0a2e 1B78     		ldrb	r3, [r3, #0]	@ zero_extendqisi2
 1850 0a30 1846     		mov	r0, r3
 1851 0a32 00F037FE 		bl	RTC_Bcd2ToByte
 1852 0a36 0346     		mov	r3, r0
 1853 0a38 1A46     		mov	r2, r3
 1854 0a3a 7B68     		ldr	r3, [r7, #4]
 1855 0a3c 1A70     		strb	r2, [r3, #0]
1262:../Libraries/STM32F4xx_StdPeriph_Driver/src/stm32f4xx_rtc.c ****                                                         RTC_AlarmTime.RTC_Hours);
1263:../Libraries/STM32F4xx_StdPeriph_Driver/src/stm32f4xx_rtc.c ****     RTC_AlarmStruct->RTC_AlarmTime.RTC_Minutes = RTC_Bcd2ToByte(RTC_AlarmStruct-> \
 1856              		.loc 1 1263 0
 1857 0a3e 7B68     		ldr	r3, [r7, #4]
 1858 0a40 5B78     		ldrb	r3, [r3, #1]	@ zero_extendqisi2
 1859 0a42 1846     		mov	r0, r3
 1860 0a44 00F02EFE 		bl	RTC_Bcd2ToByte
 1861 0a48 0346     		mov	r3, r0
 1862 0a4a 1A46     		mov	r2, r3
 1863 0a4c 7B68     		ldr	r3, [r7, #4]
 1864 0a4e 5A70     		strb	r2, [r3, #1]
1264:../Libraries/STM32F4xx_StdPeriph_Driver/src/stm32f4xx_rtc.c ****                                                         RTC_AlarmTime.RTC_Minutes);
1265:../Libraries/STM32F4xx_StdPeriph_Driver/src/stm32f4xx_rtc.c ****     RTC_AlarmStruct->RTC_AlarmTime.RTC_Seconds = RTC_Bcd2ToByte(RTC_AlarmStruct-> \
 1865              		.loc 1 1265 0
 1866 0a50 7B68     		ldr	r3, [r7, #4]
 1867 0a52 9B78     		ldrb	r3, [r3, #2]	@ zero_extendqisi2
 1868 0a54 1846     		mov	r0, r3
 1869 0a56 00F025FE 		bl	RTC_Bcd2ToByte
 1870 0a5a 0346     		mov	r3, r0
 1871 0a5c 1A46     		mov	r2, r3
 1872 0a5e 7B68     		ldr	r3, [r7, #4]
 1873 0a60 9A70     		strb	r2, [r3, #2]
1266:../Libraries/STM32F4xx_StdPeriph_Driver/src/stm32f4xx_rtc.c ****                                                         RTC_AlarmTime.RTC_Seconds);
1267:../Libraries/STM32F4xx_StdPeriph_Driver/src/stm32f4xx_rtc.c ****     RTC_AlarmStruct->RTC_AlarmDateWeekDay = RTC_Bcd2ToByte(RTC_AlarmStruct->RTC_AlarmDateWeekDay);
 1874              		.loc 1 1267 0
 1875 0a62 7B68     		ldr	r3, [r7, #4]
 1876 0a64 1B7B     		ldrb	r3, [r3, #12]	@ zero_extendqisi2
 1877 0a66 1846     		mov	r0, r3
 1878 0a68 00F01CFE 		bl	RTC_Bcd2ToByte
 1879 0a6c 0346     		mov	r3, r0
 1880 0a6e 1A46     		mov	r2, r3
 1881 0a70 7B68     		ldr	r3, [r7, #4]
 1882 0a72 1A73     		strb	r2, [r3, #12]
 1883              	.L107:
1268:../Libraries/STM32F4xx_StdPeriph_Driver/src/stm32f4xx_rtc.c ****   }  
1269:../Libraries/STM32F4xx_StdPeriph_Driver/src/stm32f4xx_rtc.c **** }
 1884              		.loc 1 1269 0
 1885 0a74 07F11807 		add	r7, r7, #24
 1886 0a78 BD46     		mov	sp, r7
 1887 0a7a 80BD     		pop	{r7, pc}
 1888              	.L112:
 1889              		.align	2
 1890              	.L111:
 1891 0a7c 00280040 		.word	1073752064
 1892              		.cfi_endproc
 1893              	.LFE128:
 1895              		.align	2
 1896              		.global	RTC_AlarmCmd
 1897              		.thumb
 1898              		.thumb_func
 1900              	RTC_AlarmCmd:
 1901              	.LFB129:
1270:../Libraries/STM32F4xx_StdPeriph_Driver/src/stm32f4xx_rtc.c **** 
1271:../Libraries/STM32F4xx_StdPeriph_Driver/src/stm32f4xx_rtc.c **** /**
1272:../Libraries/STM32F4xx_StdPeriph_Driver/src/stm32f4xx_rtc.c ****   * @brief  Enables or disables the specified RTC Alarm.
1273:../Libraries/STM32F4xx_StdPeriph_Driver/src/stm32f4xx_rtc.c ****   * @param  RTC_Alarm: specifies the alarm to be configured.
1274:../Libraries/STM32F4xx_StdPeriph_Driver/src/stm32f4xx_rtc.c ****   *          This parameter can be any combination of the following values:
1275:../Libraries/STM32F4xx_StdPeriph_Driver/src/stm32f4xx_rtc.c ****   *            @arg RTC_Alarm_A: to select Alarm A
1276:../Libraries/STM32F4xx_StdPeriph_Driver/src/stm32f4xx_rtc.c ****   *            @arg RTC_Alarm_B: to select Alarm B  
1277:../Libraries/STM32F4xx_StdPeriph_Driver/src/stm32f4xx_rtc.c ****   * @param  NewState: new state of the specified alarm.
1278:../Libraries/STM32F4xx_StdPeriph_Driver/src/stm32f4xx_rtc.c ****   *          This parameter can be: ENABLE or DISABLE.
1279:../Libraries/STM32F4xx_StdPeriph_Driver/src/stm32f4xx_rtc.c ****   * @retval An ErrorStatus enumeration value:
1280:../Libraries/STM32F4xx_StdPeriph_Driver/src/stm32f4xx_rtc.c ****   *          - SUCCESS: RTC Alarm is enabled/disabled
1281:../Libraries/STM32F4xx_StdPeriph_Driver/src/stm32f4xx_rtc.c ****   *          - ERROR: RTC Alarm is not enabled/disabled  
1282:../Libraries/STM32F4xx_StdPeriph_Driver/src/stm32f4xx_rtc.c ****   */
1283:../Libraries/STM32F4xx_StdPeriph_Driver/src/stm32f4xx_rtc.c **** ErrorStatus RTC_AlarmCmd(uint32_t RTC_Alarm, FunctionalState NewState)
1284:../Libraries/STM32F4xx_StdPeriph_Driver/src/stm32f4xx_rtc.c **** {
 1902              		.loc 1 1284 0
 1903              		.cfi_startproc
 1904              		@ args = 0, pretend = 0, frame = 24
 1905              		@ frame_needed = 1, uses_anonymous_args = 0
 1906              		@ link register save eliminated.
 1907 0a80 80B4     		push	{r7}
 1908              	.LCFI56:
 1909              		.cfi_def_cfa_offset 4
 1910              		.cfi_offset 7, -4
 1911 0a82 87B0     		sub	sp, sp, #28
 1912              	.LCFI57:
 1913              		.cfi_def_cfa_offset 32
 1914 0a84 00AF     		add	r7, sp, #0
 1915              	.LCFI58:
 1916              		.cfi_def_cfa_register 7
 1917 0a86 7860     		str	r0, [r7, #4]
 1918 0a88 0B46     		mov	r3, r1
 1919 0a8a FB70     		strb	r3, [r7, #3]
1285:../Libraries/STM32F4xx_StdPeriph_Driver/src/stm32f4xx_rtc.c ****   __IO uint32_t alarmcounter = 0x00;
 1920              		.loc 1 1285 0
 1921 0a8c 4FF00003 		mov	r3, #0
 1922 0a90 FB60     		str	r3, [r7, #12]
1286:../Libraries/STM32F4xx_StdPeriph_Driver/src/stm32f4xx_rtc.c ****   uint32_t alarmstatus = 0x00;
 1923              		.loc 1 1286 0
 1924 0a92 4FF00003 		mov	r3, #0
 1925 0a96 3B61     		str	r3, [r7, #16]
1287:../Libraries/STM32F4xx_StdPeriph_Driver/src/stm32f4xx_rtc.c ****   ErrorStatus status = ERROR;
 1926              		.loc 1 1287 0
 1927 0a98 4FF00003 		mov	r3, #0
 1928 0a9c FB75     		strb	r3, [r7, #23]
1288:../Libraries/STM32F4xx_StdPeriph_Driver/src/stm32f4xx_rtc.c ****     
1289:../Libraries/STM32F4xx_StdPeriph_Driver/src/stm32f4xx_rtc.c ****   /* Check the parameters */
1290:../Libraries/STM32F4xx_StdPeriph_Driver/src/stm32f4xx_rtc.c ****   assert_param(IS_RTC_CMD_ALARM(RTC_Alarm));
1291:../Libraries/STM32F4xx_StdPeriph_Driver/src/stm32f4xx_rtc.c ****   assert_param(IS_FUNCTIONAL_STATE(NewState));
1292:../Libraries/STM32F4xx_StdPeriph_Driver/src/stm32f4xx_rtc.c **** 
1293:../Libraries/STM32F4xx_StdPeriph_Driver/src/stm32f4xx_rtc.c ****   /* Disable the write protection for RTC registers */
1294:../Libraries/STM32F4xx_StdPeriph_Driver/src/stm32f4xx_rtc.c ****   RTC->WPR = 0xCA;
 1929              		.loc 1 1294 0
 1930 0a9e 244B     		ldr	r3, .L120
 1931 0aa0 4FF0CA02 		mov	r2, #202
 1932 0aa4 5A62     		str	r2, [r3, #36]
1295:../Libraries/STM32F4xx_StdPeriph_Driver/src/stm32f4xx_rtc.c ****   RTC->WPR = 0x53;
 1933              		.loc 1 1295 0
 1934 0aa6 224B     		ldr	r3, .L120
 1935 0aa8 4FF05302 		mov	r2, #83
 1936 0aac 5A62     		str	r2, [r3, #36]
1296:../Libraries/STM32F4xx_StdPeriph_Driver/src/stm32f4xx_rtc.c **** 
1297:../Libraries/STM32F4xx_StdPeriph_Driver/src/stm32f4xx_rtc.c ****   /* Configure the Alarm state */
1298:../Libraries/STM32F4xx_StdPeriph_Driver/src/stm32f4xx_rtc.c ****   if (NewState != DISABLE)
 1937              		.loc 1 1298 0
 1938 0aae FB78     		ldrb	r3, [r7, #3]	@ zero_extendqisi2
 1939 0ab0 002B     		cmp	r3, #0
 1940 0ab2 09D0     		beq	.L114
1299:../Libraries/STM32F4xx_StdPeriph_Driver/src/stm32f4xx_rtc.c ****   {
1300:../Libraries/STM32F4xx_StdPeriph_Driver/src/stm32f4xx_rtc.c ****     RTC->CR |= (uint32_t)RTC_Alarm;
 1941              		.loc 1 1300 0
 1942 0ab4 1E4B     		ldr	r3, .L120
 1943 0ab6 1E4A     		ldr	r2, .L120
 1944 0ab8 9168     		ldr	r1, [r2, #8]
 1945 0aba 7A68     		ldr	r2, [r7, #4]
 1946 0abc 0A43     		orrs	r2, r2, r1
 1947 0abe 9A60     		str	r2, [r3, #8]
1301:../Libraries/STM32F4xx_StdPeriph_Driver/src/stm32f4xx_rtc.c **** 
1302:../Libraries/STM32F4xx_StdPeriph_Driver/src/stm32f4xx_rtc.c ****     status = SUCCESS;    
 1948              		.loc 1 1302 0
 1949 0ac0 4FF00103 		mov	r3, #1
 1950 0ac4 FB75     		strb	r3, [r7, #23]
 1951 0ac6 28E0     		b	.L115
 1952              	.L114:
1303:../Libraries/STM32F4xx_StdPeriph_Driver/src/stm32f4xx_rtc.c ****   }
1304:../Libraries/STM32F4xx_StdPeriph_Driver/src/stm32f4xx_rtc.c ****   else
1305:../Libraries/STM32F4xx_StdPeriph_Driver/src/stm32f4xx_rtc.c ****   { 
1306:../Libraries/STM32F4xx_StdPeriph_Driver/src/stm32f4xx_rtc.c ****     /* Disable the Alarm in RTC_CR register */
1307:../Libraries/STM32F4xx_StdPeriph_Driver/src/stm32f4xx_rtc.c ****     RTC->CR &= (uint32_t)~RTC_Alarm;
 1953              		.loc 1 1307 0
 1954 0ac8 194B     		ldr	r3, .L120
 1955 0aca 194A     		ldr	r2, .L120
 1956 0acc 9168     		ldr	r1, [r2, #8]
 1957 0ace 7A68     		ldr	r2, [r7, #4]
 1958 0ad0 6FEA0202 		mvn	r2, r2
 1959 0ad4 0A40     		ands	r2, r2, r1
 1960 0ad6 9A60     		str	r2, [r3, #8]
 1961              	.L117:
1308:../Libraries/STM32F4xx_StdPeriph_Driver/src/stm32f4xx_rtc.c ****    
1309:../Libraries/STM32F4xx_StdPeriph_Driver/src/stm32f4xx_rtc.c ****     /* Wait till RTC ALRxWF flag is set and if Time out is reached exit */
1310:../Libraries/STM32F4xx_StdPeriph_Driver/src/stm32f4xx_rtc.c ****     do
1311:../Libraries/STM32F4xx_StdPeriph_Driver/src/stm32f4xx_rtc.c ****     {
1312:../Libraries/STM32F4xx_StdPeriph_Driver/src/stm32f4xx_rtc.c ****       alarmstatus = RTC->ISR & (RTC_Alarm >> 8);
 1962              		.loc 1 1312 0 discriminator 1
 1963 0ad8 154B     		ldr	r3, .L120
 1964 0ada DA68     		ldr	r2, [r3, #12]
 1965 0adc 7B68     		ldr	r3, [r7, #4]
 1966 0ade 4FEA1323 		lsr	r3, r3, #8
 1967 0ae2 1340     		ands	r3, r3, r2
 1968 0ae4 3B61     		str	r3, [r7, #16]
1313:../Libraries/STM32F4xx_StdPeriph_Driver/src/stm32f4xx_rtc.c ****       alarmcounter++;  
 1969              		.loc 1 1313 0 discriminator 1
 1970 0ae6 FB68     		ldr	r3, [r7, #12]
 1971 0ae8 03F10103 		add	r3, r3, #1
 1972 0aec FB60     		str	r3, [r7, #12]
1314:../Libraries/STM32F4xx_StdPeriph_Driver/src/stm32f4xx_rtc.c ****     } while((alarmcounter != INITMODE_TIMEOUT) && (alarmstatus == 0x00));
 1973              		.loc 1 1314 0 discriminator 1
 1974 0aee FB68     		ldr	r3, [r7, #12]
 1975 0af0 B3F5803F 		cmp	r3, #65536
 1976 0af4 02D0     		beq	.L116
 1977 0af6 3B69     		ldr	r3, [r7, #16]
 1978 0af8 002B     		cmp	r3, #0
 1979 0afa EDD0     		beq	.L117
 1980              	.L116:
1315:../Libraries/STM32F4xx_StdPeriph_Driver/src/stm32f4xx_rtc.c ****     
1316:../Libraries/STM32F4xx_StdPeriph_Driver/src/stm32f4xx_rtc.c ****     if ((RTC->ISR & (RTC_Alarm >> 8)) == RESET)
 1981              		.loc 1 1316 0
 1982 0afc 0C4B     		ldr	r3, .L120
 1983 0afe DA68     		ldr	r2, [r3, #12]
 1984 0b00 7B68     		ldr	r3, [r7, #4]
 1985 0b02 4FEA1323 		lsr	r3, r3, #8
 1986 0b06 1340     		ands	r3, r3, r2
 1987 0b08 002B     		cmp	r3, #0
 1988 0b0a 03D1     		bne	.L118
1317:../Libraries/STM32F4xx_StdPeriph_Driver/src/stm32f4xx_rtc.c ****     {
1318:../Libraries/STM32F4xx_StdPeriph_Driver/src/stm32f4xx_rtc.c ****       status = ERROR;
 1989              		.loc 1 1318 0
 1990 0b0c 4FF00003 		mov	r3, #0
 1991 0b10 FB75     		strb	r3, [r7, #23]
 1992 0b12 02E0     		b	.L115
 1993              	.L118:
1319:../Libraries/STM32F4xx_StdPeriph_Driver/src/stm32f4xx_rtc.c ****     } 
1320:../Libraries/STM32F4xx_StdPeriph_Driver/src/stm32f4xx_rtc.c ****     else
1321:../Libraries/STM32F4xx_StdPeriph_Driver/src/stm32f4xx_rtc.c ****     {
1322:../Libraries/STM32F4xx_StdPeriph_Driver/src/stm32f4xx_rtc.c ****       status = SUCCESS;
 1994              		.loc 1 1322 0
 1995 0b14 4FF00103 		mov	r3, #1
 1996 0b18 FB75     		strb	r3, [r7, #23]
 1997              	.L115:
1323:../Libraries/STM32F4xx_StdPeriph_Driver/src/stm32f4xx_rtc.c ****     }        
1324:../Libraries/STM32F4xx_StdPeriph_Driver/src/stm32f4xx_rtc.c ****   } 
1325:../Libraries/STM32F4xx_StdPeriph_Driver/src/stm32f4xx_rtc.c **** 
1326:../Libraries/STM32F4xx_StdPeriph_Driver/src/stm32f4xx_rtc.c ****   /* Enable the write protection for RTC registers */
1327:../Libraries/STM32F4xx_StdPeriph_Driver/src/stm32f4xx_rtc.c ****   RTC->WPR = 0xFF; 
 1998              		.loc 1 1327 0
 1999 0b1a 054B     		ldr	r3, .L120
 2000 0b1c 4FF0FF02 		mov	r2, #255
 2001 0b20 5A62     		str	r2, [r3, #36]
1328:../Libraries/STM32F4xx_StdPeriph_Driver/src/stm32f4xx_rtc.c ****   
1329:../Libraries/STM32F4xx_StdPeriph_Driver/src/stm32f4xx_rtc.c ****   return status;
 2002              		.loc 1 1329 0
 2003 0b22 FB7D     		ldrb	r3, [r7, #23]	@ zero_extendqisi2
1330:../Libraries/STM32F4xx_StdPeriph_Driver/src/stm32f4xx_rtc.c **** }
 2004              		.loc 1 1330 0
 2005 0b24 1846     		mov	r0, r3
 2006 0b26 07F11C07 		add	r7, r7, #28
 2007 0b2a BD46     		mov	sp, r7
 2008 0b2c 80BC     		pop	{r7}
 2009 0b2e 7047     		bx	lr
 2010              	.L121:
 2011              		.align	2
 2012              	.L120:
 2013 0b30 00280040 		.word	1073752064
 2014              		.cfi_endproc
 2015              	.LFE129:
 2017              		.align	2
 2018              		.global	RTC_AlarmSubSecondConfig
 2019              		.thumb
 2020              		.thumb_func
 2022              	RTC_AlarmSubSecondConfig:
 2023              	.LFB130:
1331:../Libraries/STM32F4xx_StdPeriph_Driver/src/stm32f4xx_rtc.c **** 
1332:../Libraries/STM32F4xx_StdPeriph_Driver/src/stm32f4xx_rtc.c **** /**
1333:../Libraries/STM32F4xx_StdPeriph_Driver/src/stm32f4xx_rtc.c ****   * @brief  Configure the RTC AlarmA/B Subseconds value and mask.*
1334:../Libraries/STM32F4xx_StdPeriph_Driver/src/stm32f4xx_rtc.c ****   * @note   This function is performed only when the Alarm is disabled. 
1335:../Libraries/STM32F4xx_StdPeriph_Driver/src/stm32f4xx_rtc.c ****   * @param  RTC_Alarm: specifies the alarm to be configured.
1336:../Libraries/STM32F4xx_StdPeriph_Driver/src/stm32f4xx_rtc.c ****   *   This parameter can be one of the following values:
1337:../Libraries/STM32F4xx_StdPeriph_Driver/src/stm32f4xx_rtc.c ****   *     @arg RTC_Alarm_A: to select Alarm A
1338:../Libraries/STM32F4xx_StdPeriph_Driver/src/stm32f4xx_rtc.c ****   *     @arg RTC_Alarm_B: to select Alarm B
1339:../Libraries/STM32F4xx_StdPeriph_Driver/src/stm32f4xx_rtc.c ****   * @param  RTC_AlarmSubSecondValue: specifies the Subseconds value.
1340:../Libraries/STM32F4xx_StdPeriph_Driver/src/stm32f4xx_rtc.c ****   *   This parameter can be a value from 0 to 0x00007FFF.
1341:../Libraries/STM32F4xx_StdPeriph_Driver/src/stm32f4xx_rtc.c ****   * @param  RTC_AlarmSubSecondMask:  specifies the Subseconds Mask.
1342:../Libraries/STM32F4xx_StdPeriph_Driver/src/stm32f4xx_rtc.c ****   *   This parameter can be any combination of the following values:
1343:../Libraries/STM32F4xx_StdPeriph_Driver/src/stm32f4xx_rtc.c ****   *     @arg RTC_AlarmSubSecondMask_All    : All Alarm SS fields are masked.
1344:../Libraries/STM32F4xx_StdPeriph_Driver/src/stm32f4xx_rtc.c ****   *                                          There is no comparison on sub seconds for Alarm.
1345:../Libraries/STM32F4xx_StdPeriph_Driver/src/stm32f4xx_rtc.c ****   *     @arg RTC_AlarmSubSecondMask_SS14_1 : SS[14:1] are don't care in Alarm comparison.
1346:../Libraries/STM32F4xx_StdPeriph_Driver/src/stm32f4xx_rtc.c ****   *                                          Only SS[0] is compared
1347:../Libraries/STM32F4xx_StdPeriph_Driver/src/stm32f4xx_rtc.c ****   *     @arg RTC_AlarmSubSecondMask_SS14_2 : SS[14:2] are don't care in Alarm comparison.
1348:../Libraries/STM32F4xx_StdPeriph_Driver/src/stm32f4xx_rtc.c ****   *                                          Only SS[1:0] are compared
1349:../Libraries/STM32F4xx_StdPeriph_Driver/src/stm32f4xx_rtc.c ****   *     @arg RTC_AlarmSubSecondMask_SS14_3 : SS[14:3] are don't care in Alarm comparison.
1350:../Libraries/STM32F4xx_StdPeriph_Driver/src/stm32f4xx_rtc.c ****   *                                          Only SS[2:0] are compared
1351:../Libraries/STM32F4xx_StdPeriph_Driver/src/stm32f4xx_rtc.c ****   *     @arg RTC_AlarmSubSecondMask_SS14_4 : SS[14:4] are don't care in Alarm comparison.
1352:../Libraries/STM32F4xx_StdPeriph_Driver/src/stm32f4xx_rtc.c ****   *                                          Only SS[3:0] are compared
1353:../Libraries/STM32F4xx_StdPeriph_Driver/src/stm32f4xx_rtc.c ****   *     @arg RTC_AlarmSubSecondMask_SS14_5 : SS[14:5] are don't care in Alarm comparison.
1354:../Libraries/STM32F4xx_StdPeriph_Driver/src/stm32f4xx_rtc.c ****   *                                          Only SS[4:0] are compared
1355:../Libraries/STM32F4xx_StdPeriph_Driver/src/stm32f4xx_rtc.c ****   *     @arg RTC_AlarmSubSecondMask_SS14_6 : SS[14:6] are don't care in Alarm comparison.
1356:../Libraries/STM32F4xx_StdPeriph_Driver/src/stm32f4xx_rtc.c ****   *                                          Only SS[5:0] are compared
1357:../Libraries/STM32F4xx_StdPeriph_Driver/src/stm32f4xx_rtc.c ****   *     @arg RTC_AlarmSubSecondMask_SS14_7 : SS[14:7] are don't care in Alarm comparison.
1358:../Libraries/STM32F4xx_StdPeriph_Driver/src/stm32f4xx_rtc.c ****   *                                          Only SS[6:0] are compared
1359:../Libraries/STM32F4xx_StdPeriph_Driver/src/stm32f4xx_rtc.c ****   *     @arg RTC_AlarmSubSecondMask_SS14_8 : SS[14:8] are don't care in Alarm comparison.
1360:../Libraries/STM32F4xx_StdPeriph_Driver/src/stm32f4xx_rtc.c ****   *                                          Only SS[7:0] are compared
1361:../Libraries/STM32F4xx_StdPeriph_Driver/src/stm32f4xx_rtc.c ****   *     @arg RTC_AlarmSubSecondMask_SS14_9 : SS[14:9] are don't care in Alarm comparison.
1362:../Libraries/STM32F4xx_StdPeriph_Driver/src/stm32f4xx_rtc.c ****   *                                          Only SS[8:0] are compared
1363:../Libraries/STM32F4xx_StdPeriph_Driver/src/stm32f4xx_rtc.c ****   *     @arg RTC_AlarmSubSecondMask_SS14_10: SS[14:10] are don't care in Alarm comparison.
1364:../Libraries/STM32F4xx_StdPeriph_Driver/src/stm32f4xx_rtc.c ****   *                                          Only SS[9:0] are compared
1365:../Libraries/STM32F4xx_StdPeriph_Driver/src/stm32f4xx_rtc.c ****   *     @arg RTC_AlarmSubSecondMask_SS14_11: SS[14:11] are don't care in Alarm comparison.
1366:../Libraries/STM32F4xx_StdPeriph_Driver/src/stm32f4xx_rtc.c ****   *                                          Only SS[10:0] are compared
1367:../Libraries/STM32F4xx_StdPeriph_Driver/src/stm32f4xx_rtc.c ****   *     @arg RTC_AlarmSubSecondMask_SS14_12: SS[14:12] are don't care in Alarm comparison.
1368:../Libraries/STM32F4xx_StdPeriph_Driver/src/stm32f4xx_rtc.c ****   *                                          Only SS[11:0] are compared
1369:../Libraries/STM32F4xx_StdPeriph_Driver/src/stm32f4xx_rtc.c ****   *     @arg RTC_AlarmSubSecondMask_SS14_13: SS[14:13] are don't care in Alarm comparison.
1370:../Libraries/STM32F4xx_StdPeriph_Driver/src/stm32f4xx_rtc.c ****   *                                          Only SS[12:0] are compared
1371:../Libraries/STM32F4xx_StdPeriph_Driver/src/stm32f4xx_rtc.c ****   *     @arg RTC_AlarmSubSecondMask_SS14   : SS[14] is don't care in Alarm comparison.
1372:../Libraries/STM32F4xx_StdPeriph_Driver/src/stm32f4xx_rtc.c ****   *                                          Only SS[13:0] are compared
1373:../Libraries/STM32F4xx_StdPeriph_Driver/src/stm32f4xx_rtc.c ****   *     @arg RTC_AlarmSubSecondMask_None   : SS[14:0] are compared and must match
1374:../Libraries/STM32F4xx_StdPeriph_Driver/src/stm32f4xx_rtc.c ****   *                                          to activate alarm
1375:../Libraries/STM32F4xx_StdPeriph_Driver/src/stm32f4xx_rtc.c ****   * @retval None
1376:../Libraries/STM32F4xx_StdPeriph_Driver/src/stm32f4xx_rtc.c ****   */
1377:../Libraries/STM32F4xx_StdPeriph_Driver/src/stm32f4xx_rtc.c **** void RTC_AlarmSubSecondConfig(uint32_t RTC_Alarm, uint32_t RTC_AlarmSubSecondValue, uint32_t RTC_Al
1378:../Libraries/STM32F4xx_StdPeriph_Driver/src/stm32f4xx_rtc.c **** {
 2024              		.loc 1 1378 0
 2025              		.cfi_startproc
 2026              		@ args = 0, pretend = 0, frame = 24
 2027              		@ frame_needed = 1, uses_anonymous_args = 0
 2028              		@ link register save eliminated.
 2029 0b34 80B4     		push	{r7}
 2030              	.LCFI59:
 2031              		.cfi_def_cfa_offset 4
 2032              		.cfi_offset 7, -4
 2033 0b36 87B0     		sub	sp, sp, #28
 2034              	.LCFI60:
 2035              		.cfi_def_cfa_offset 32
 2036 0b38 00AF     		add	r7, sp, #0
 2037              	.LCFI61:
 2038              		.cfi_def_cfa_register 7
 2039 0b3a F860     		str	r0, [r7, #12]
 2040 0b3c B960     		str	r1, [r7, #8]
 2041 0b3e 7A60     		str	r2, [r7, #4]
1379:../Libraries/STM32F4xx_StdPeriph_Driver/src/stm32f4xx_rtc.c ****   uint32_t tmpreg = 0;
 2042              		.loc 1 1379 0
 2043 0b40 4FF00003 		mov	r3, #0
 2044 0b44 7B61     		str	r3, [r7, #20]
1380:../Libraries/STM32F4xx_StdPeriph_Driver/src/stm32f4xx_rtc.c **** 
1381:../Libraries/STM32F4xx_StdPeriph_Driver/src/stm32f4xx_rtc.c ****   /* Check the parameters */
1382:../Libraries/STM32F4xx_StdPeriph_Driver/src/stm32f4xx_rtc.c ****   assert_param(IS_RTC_ALARM(RTC_Alarm));
1383:../Libraries/STM32F4xx_StdPeriph_Driver/src/stm32f4xx_rtc.c ****   assert_param(IS_RTC_ALARM_SUB_SECOND_VALUE(RTC_AlarmSubSecondValue));
1384:../Libraries/STM32F4xx_StdPeriph_Driver/src/stm32f4xx_rtc.c ****   assert_param(IS_RTC_ALARM_SUB_SECOND_MASK(RTC_AlarmSubSecondMask));
1385:../Libraries/STM32F4xx_StdPeriph_Driver/src/stm32f4xx_rtc.c ****   
1386:../Libraries/STM32F4xx_StdPeriph_Driver/src/stm32f4xx_rtc.c ****   /* Disable the write protection for RTC registers */
1387:../Libraries/STM32F4xx_StdPeriph_Driver/src/stm32f4xx_rtc.c ****   RTC->WPR = 0xCA;
 2045              		.loc 1 1387 0
 2046 0b46 104B     		ldr	r3, .L125
 2047 0b48 4FF0CA02 		mov	r2, #202
 2048 0b4c 5A62     		str	r2, [r3, #36]
1388:../Libraries/STM32F4xx_StdPeriph_Driver/src/stm32f4xx_rtc.c ****   RTC->WPR = 0x53;
 2049              		.loc 1 1388 0
 2050 0b4e 0E4B     		ldr	r3, .L125
 2051 0b50 4FF05302 		mov	r2, #83
 2052 0b54 5A62     		str	r2, [r3, #36]
1389:../Libraries/STM32F4xx_StdPeriph_Driver/src/stm32f4xx_rtc.c ****   
1390:../Libraries/STM32F4xx_StdPeriph_Driver/src/stm32f4xx_rtc.c ****   /* Configure the Alarm A or Alarm B SubSecond registers */
1391:../Libraries/STM32F4xx_StdPeriph_Driver/src/stm32f4xx_rtc.c ****   tmpreg = (uint32_t) (uint32_t)(RTC_AlarmSubSecondValue) | (uint32_t)(RTC_AlarmSubSecondMask);
 2053              		.loc 1 1391 0
 2054 0b56 BA68     		ldr	r2, [r7, #8]
 2055 0b58 7B68     		ldr	r3, [r7, #4]
 2056 0b5a 1343     		orrs	r3, r3, r2
 2057 0b5c 7B61     		str	r3, [r7, #20]
1392:../Libraries/STM32F4xx_StdPeriph_Driver/src/stm32f4xx_rtc.c ****   
1393:../Libraries/STM32F4xx_StdPeriph_Driver/src/stm32f4xx_rtc.c ****   if (RTC_Alarm == RTC_Alarm_A)
 2058              		.loc 1 1393 0
 2059 0b5e FB68     		ldr	r3, [r7, #12]
 2060 0b60 B3F5807F 		cmp	r3, #256
 2061 0b64 03D1     		bne	.L123
1394:../Libraries/STM32F4xx_StdPeriph_Driver/src/stm32f4xx_rtc.c ****   {
1395:../Libraries/STM32F4xx_StdPeriph_Driver/src/stm32f4xx_rtc.c ****     /* Configure the AlarmA SubSecond register */
1396:../Libraries/STM32F4xx_StdPeriph_Driver/src/stm32f4xx_rtc.c ****     RTC->ALRMASSR = tmpreg;
 2062              		.loc 1 1396 0
 2063 0b66 084B     		ldr	r3, .L125
 2064 0b68 7A69     		ldr	r2, [r7, #20]
 2065 0b6a 5A64     		str	r2, [r3, #68]
 2066 0b6c 02E0     		b	.L124
 2067              	.L123:
1397:../Libraries/STM32F4xx_StdPeriph_Driver/src/stm32f4xx_rtc.c ****   }
1398:../Libraries/STM32F4xx_StdPeriph_Driver/src/stm32f4xx_rtc.c ****   else
1399:../Libraries/STM32F4xx_StdPeriph_Driver/src/stm32f4xx_rtc.c ****   {
1400:../Libraries/STM32F4xx_StdPeriph_Driver/src/stm32f4xx_rtc.c ****     /* Configure the Alarm B SubSecond register */
1401:../Libraries/STM32F4xx_StdPeriph_Driver/src/stm32f4xx_rtc.c ****     RTC->ALRMBSSR = tmpreg;
 2068              		.loc 1 1401 0
 2069 0b6e 064B     		ldr	r3, .L125
 2070 0b70 7A69     		ldr	r2, [r7, #20]
 2071 0b72 9A64     		str	r2, [r3, #72]
 2072              	.L124:
1402:../Libraries/STM32F4xx_StdPeriph_Driver/src/stm32f4xx_rtc.c ****   }
1403:../Libraries/STM32F4xx_StdPeriph_Driver/src/stm32f4xx_rtc.c **** 
1404:../Libraries/STM32F4xx_StdPeriph_Driver/src/stm32f4xx_rtc.c ****   /* Enable the write protection for RTC registers */
1405:../Libraries/STM32F4xx_StdPeriph_Driver/src/stm32f4xx_rtc.c ****   RTC->WPR = 0xFF;
 2073              		.loc 1 1405 0
 2074 0b74 044B     		ldr	r3, .L125
 2075 0b76 4FF0FF02 		mov	r2, #255
 2076 0b7a 5A62     		str	r2, [r3, #36]
1406:../Libraries/STM32F4xx_StdPeriph_Driver/src/stm32f4xx_rtc.c **** 
1407:../Libraries/STM32F4xx_StdPeriph_Driver/src/stm32f4xx_rtc.c **** }
 2077              		.loc 1 1407 0
 2078 0b7c 07F11C07 		add	r7, r7, #28
 2079 0b80 BD46     		mov	sp, r7
 2080 0b82 80BC     		pop	{r7}
 2081 0b84 7047     		bx	lr
 2082              	.L126:
 2083 0b86 00BF     		.align	2
 2084              	.L125:
 2085 0b88 00280040 		.word	1073752064
 2086              		.cfi_endproc
 2087              	.LFE130:
 2089              		.align	2
 2090              		.global	RTC_GetAlarmSubSecond
 2091              		.thumb
 2092              		.thumb_func
 2094              	RTC_GetAlarmSubSecond:
 2095              	.LFB131:
1408:../Libraries/STM32F4xx_StdPeriph_Driver/src/stm32f4xx_rtc.c **** 
1409:../Libraries/STM32F4xx_StdPeriph_Driver/src/stm32f4xx_rtc.c **** /**
1410:../Libraries/STM32F4xx_StdPeriph_Driver/src/stm32f4xx_rtc.c ****   * @brief  Gets the RTC Alarm Subseconds value.
1411:../Libraries/STM32F4xx_StdPeriph_Driver/src/stm32f4xx_rtc.c ****   * @param  RTC_Alarm: specifies the alarm to be read.
1412:../Libraries/STM32F4xx_StdPeriph_Driver/src/stm32f4xx_rtc.c ****   *   This parameter can be one of the following values:
1413:../Libraries/STM32F4xx_StdPeriph_Driver/src/stm32f4xx_rtc.c ****   *     @arg RTC_Alarm_A: to select Alarm A
1414:../Libraries/STM32F4xx_StdPeriph_Driver/src/stm32f4xx_rtc.c ****   *     @arg RTC_Alarm_B: to select Alarm B
1415:../Libraries/STM32F4xx_StdPeriph_Driver/src/stm32f4xx_rtc.c ****   * @param  None
1416:../Libraries/STM32F4xx_StdPeriph_Driver/src/stm32f4xx_rtc.c ****   * @retval RTC Alarm Subseconds value.
1417:../Libraries/STM32F4xx_StdPeriph_Driver/src/stm32f4xx_rtc.c ****   */
1418:../Libraries/STM32F4xx_StdPeriph_Driver/src/stm32f4xx_rtc.c **** uint32_t RTC_GetAlarmSubSecond(uint32_t RTC_Alarm)
1419:../Libraries/STM32F4xx_StdPeriph_Driver/src/stm32f4xx_rtc.c **** {
 2096              		.loc 1 1419 0
 2097              		.cfi_startproc
 2098              		@ args = 0, pretend = 0, frame = 16
 2099              		@ frame_needed = 1, uses_anonymous_args = 0
 2100              		@ link register save eliminated.
 2101 0b8c 80B4     		push	{r7}
 2102              	.LCFI62:
 2103              		.cfi_def_cfa_offset 4
 2104              		.cfi_offset 7, -4
 2105 0b8e 85B0     		sub	sp, sp, #20
 2106              	.LCFI63:
 2107              		.cfi_def_cfa_offset 24
 2108 0b90 00AF     		add	r7, sp, #0
 2109              	.LCFI64:
 2110              		.cfi_def_cfa_register 7
 2111 0b92 7860     		str	r0, [r7, #4]
1420:../Libraries/STM32F4xx_StdPeriph_Driver/src/stm32f4xx_rtc.c ****   uint32_t tmpreg = 0;
 2112              		.loc 1 1420 0
 2113 0b94 4FF00003 		mov	r3, #0
 2114 0b98 FB60     		str	r3, [r7, #12]
1421:../Libraries/STM32F4xx_StdPeriph_Driver/src/stm32f4xx_rtc.c ****   
1422:../Libraries/STM32F4xx_StdPeriph_Driver/src/stm32f4xx_rtc.c ****   /* Get the RTC_ALRMxR register */
1423:../Libraries/STM32F4xx_StdPeriph_Driver/src/stm32f4xx_rtc.c ****   if (RTC_Alarm == RTC_Alarm_A)
 2115              		.loc 1 1423 0
 2116 0b9a 7B68     		ldr	r3, [r7, #4]
 2117 0b9c B3F5807F 		cmp	r3, #256
 2118 0ba0 07D1     		bne	.L128
1424:../Libraries/STM32F4xx_StdPeriph_Driver/src/stm32f4xx_rtc.c ****   {
1425:../Libraries/STM32F4xx_StdPeriph_Driver/src/stm32f4xx_rtc.c ****     tmpreg = (uint32_t)((RTC->ALRMASSR) & RTC_ALRMASSR_SS);
 2119              		.loc 1 1425 0
 2120 0ba2 0B4B     		ldr	r3, .L131
 2121 0ba4 5B6C     		ldr	r3, [r3, #68]
 2122 0ba6 4FEA4343 		lsl	r3, r3, #17
 2123 0baa 4FEA5343 		lsr	r3, r3, #17
 2124 0bae FB60     		str	r3, [r7, #12]
 2125 0bb0 06E0     		b	.L129
 2126              	.L128:
1426:../Libraries/STM32F4xx_StdPeriph_Driver/src/stm32f4xx_rtc.c ****   }
1427:../Libraries/STM32F4xx_StdPeriph_Driver/src/stm32f4xx_rtc.c ****   else
1428:../Libraries/STM32F4xx_StdPeriph_Driver/src/stm32f4xx_rtc.c ****   {
1429:../Libraries/STM32F4xx_StdPeriph_Driver/src/stm32f4xx_rtc.c ****     tmpreg = (uint32_t)((RTC->ALRMBSSR) & RTC_ALRMBSSR_SS);
 2127              		.loc 1 1429 0
 2128 0bb2 074B     		ldr	r3, .L131
 2129 0bb4 9B6C     		ldr	r3, [r3, #72]
 2130 0bb6 4FEA4343 		lsl	r3, r3, #17
 2131 0bba 4FEA5343 		lsr	r3, r3, #17
 2132 0bbe FB60     		str	r3, [r7, #12]
 2133              	.L129:
1430:../Libraries/STM32F4xx_StdPeriph_Driver/src/stm32f4xx_rtc.c ****   } 
1431:../Libraries/STM32F4xx_StdPeriph_Driver/src/stm32f4xx_rtc.c ****   
1432:../Libraries/STM32F4xx_StdPeriph_Driver/src/stm32f4xx_rtc.c ****   return (tmpreg);
 2134              		.loc 1 1432 0
 2135 0bc0 FB68     		ldr	r3, [r7, #12]
1433:../Libraries/STM32F4xx_StdPeriph_Driver/src/stm32f4xx_rtc.c **** }
 2136              		.loc 1 1433 0
 2137 0bc2 1846     		mov	r0, r3
 2138 0bc4 07F11407 		add	r7, r7, #20
 2139 0bc8 BD46     		mov	sp, r7
 2140 0bca 80BC     		pop	{r7}
 2141 0bcc 7047     		bx	lr
 2142              	.L132:
 2143 0bce 00BF     		.align	2
 2144              	.L131:
 2145 0bd0 00280040 		.word	1073752064
 2146              		.cfi_endproc
 2147              	.LFE131:
 2149              		.align	2
 2150              		.global	RTC_WakeUpClockConfig
 2151              		.thumb
 2152              		.thumb_func
 2154              	RTC_WakeUpClockConfig:
 2155              	.LFB132:
1434:../Libraries/STM32F4xx_StdPeriph_Driver/src/stm32f4xx_rtc.c **** 
1435:../Libraries/STM32F4xx_StdPeriph_Driver/src/stm32f4xx_rtc.c **** /**
1436:../Libraries/STM32F4xx_StdPeriph_Driver/src/stm32f4xx_rtc.c ****   * @}
1437:../Libraries/STM32F4xx_StdPeriph_Driver/src/stm32f4xx_rtc.c ****   */
1438:../Libraries/STM32F4xx_StdPeriph_Driver/src/stm32f4xx_rtc.c **** 
1439:../Libraries/STM32F4xx_StdPeriph_Driver/src/stm32f4xx_rtc.c **** /** @defgroup RTC_Group4 WakeUp Timer configuration functions
1440:../Libraries/STM32F4xx_StdPeriph_Driver/src/stm32f4xx_rtc.c ****  *  @brief   WakeUp Timer configuration functions 
1441:../Libraries/STM32F4xx_StdPeriph_Driver/src/stm32f4xx_rtc.c ****  *
1442:../Libraries/STM32F4xx_StdPeriph_Driver/src/stm32f4xx_rtc.c **** @verbatim   
1443:../Libraries/STM32F4xx_StdPeriph_Driver/src/stm32f4xx_rtc.c ****  ===============================================================================
1444:../Libraries/STM32F4xx_StdPeriph_Driver/src/stm32f4xx_rtc.c ****                      WakeUp Timer configuration functions
1445:../Libraries/STM32F4xx_StdPeriph_Driver/src/stm32f4xx_rtc.c ****  ===============================================================================  
1446:../Libraries/STM32F4xx_StdPeriph_Driver/src/stm32f4xx_rtc.c **** 
1447:../Libraries/STM32F4xx_StdPeriph_Driver/src/stm32f4xx_rtc.c ****   This section provide functions allowing to program and read the RTC WakeUp.
1448:../Libraries/STM32F4xx_StdPeriph_Driver/src/stm32f4xx_rtc.c **** 
1449:../Libraries/STM32F4xx_StdPeriph_Driver/src/stm32f4xx_rtc.c **** @endverbatim
1450:../Libraries/STM32F4xx_StdPeriph_Driver/src/stm32f4xx_rtc.c ****   * @{
1451:../Libraries/STM32F4xx_StdPeriph_Driver/src/stm32f4xx_rtc.c ****   */
1452:../Libraries/STM32F4xx_StdPeriph_Driver/src/stm32f4xx_rtc.c **** 
1453:../Libraries/STM32F4xx_StdPeriph_Driver/src/stm32f4xx_rtc.c **** /**
1454:../Libraries/STM32F4xx_StdPeriph_Driver/src/stm32f4xx_rtc.c ****   * @brief  Configures the RTC Wakeup clock source.
1455:../Libraries/STM32F4xx_StdPeriph_Driver/src/stm32f4xx_rtc.c ****   * @note   The WakeUp Clock source can only be changed when the RTC WakeUp
1456:../Libraries/STM32F4xx_StdPeriph_Driver/src/stm32f4xx_rtc.c ****   *         is disabled (Use the RTC_WakeUpCmd(DISABLE)).      
1457:../Libraries/STM32F4xx_StdPeriph_Driver/src/stm32f4xx_rtc.c ****   * @param  RTC_WakeUpClock: Wakeup Clock source.
1458:../Libraries/STM32F4xx_StdPeriph_Driver/src/stm32f4xx_rtc.c ****   *          This parameter can be one of the following values:
1459:../Libraries/STM32F4xx_StdPeriph_Driver/src/stm32f4xx_rtc.c ****   *            @arg RTC_WakeUpClock_RTCCLK_Div16: RTC Wakeup Counter Clock = RTCCLK/16
1460:../Libraries/STM32F4xx_StdPeriph_Driver/src/stm32f4xx_rtc.c ****   *            @arg RTC_WakeUpClock_RTCCLK_Div8: RTC Wakeup Counter Clock = RTCCLK/8
1461:../Libraries/STM32F4xx_StdPeriph_Driver/src/stm32f4xx_rtc.c ****   *            @arg RTC_WakeUpClock_RTCCLK_Div4: RTC Wakeup Counter Clock = RTCCLK/4
1462:../Libraries/STM32F4xx_StdPeriph_Driver/src/stm32f4xx_rtc.c ****   *            @arg RTC_WakeUpClock_RTCCLK_Div2: RTC Wakeup Counter Clock = RTCCLK/2
1463:../Libraries/STM32F4xx_StdPeriph_Driver/src/stm32f4xx_rtc.c ****   *            @arg RTC_WakeUpClock_CK_SPRE_16bits: RTC Wakeup Counter Clock = CK_SPRE
1464:../Libraries/STM32F4xx_StdPeriph_Driver/src/stm32f4xx_rtc.c ****   *            @arg RTC_WakeUpClock_CK_SPRE_17bits: RTC Wakeup Counter Clock = CK_SPRE
1465:../Libraries/STM32F4xx_StdPeriph_Driver/src/stm32f4xx_rtc.c ****   * @retval None
1466:../Libraries/STM32F4xx_StdPeriph_Driver/src/stm32f4xx_rtc.c ****   */
1467:../Libraries/STM32F4xx_StdPeriph_Driver/src/stm32f4xx_rtc.c **** void RTC_WakeUpClockConfig(uint32_t RTC_WakeUpClock)
1468:../Libraries/STM32F4xx_StdPeriph_Driver/src/stm32f4xx_rtc.c **** {
 2156              		.loc 1 1468 0
 2157              		.cfi_startproc
 2158              		@ args = 0, pretend = 0, frame = 8
 2159              		@ frame_needed = 1, uses_anonymous_args = 0
 2160              		@ link register save eliminated.
 2161 0bd4 80B4     		push	{r7}
 2162              	.LCFI65:
 2163              		.cfi_def_cfa_offset 4
 2164              		.cfi_offset 7, -4
 2165 0bd6 83B0     		sub	sp, sp, #12
 2166              	.LCFI66:
 2167              		.cfi_def_cfa_offset 16
 2168 0bd8 00AF     		add	r7, sp, #0
 2169              	.LCFI67:
 2170              		.cfi_def_cfa_register 7
 2171 0bda 7860     		str	r0, [r7, #4]
1469:../Libraries/STM32F4xx_StdPeriph_Driver/src/stm32f4xx_rtc.c ****   /* Check the parameters */
1470:../Libraries/STM32F4xx_StdPeriph_Driver/src/stm32f4xx_rtc.c ****   assert_param(IS_RTC_WAKEUP_CLOCK(RTC_WakeUpClock));
1471:../Libraries/STM32F4xx_StdPeriph_Driver/src/stm32f4xx_rtc.c **** 
1472:../Libraries/STM32F4xx_StdPeriph_Driver/src/stm32f4xx_rtc.c ****   /* Disable the write protection for RTC registers */
1473:../Libraries/STM32F4xx_StdPeriph_Driver/src/stm32f4xx_rtc.c ****   RTC->WPR = 0xCA;
 2172              		.loc 1 1473 0
 2173 0bdc 0E4B     		ldr	r3, .L134
 2174 0bde 4FF0CA02 		mov	r2, #202
 2175 0be2 5A62     		str	r2, [r3, #36]
1474:../Libraries/STM32F4xx_StdPeriph_Driver/src/stm32f4xx_rtc.c ****   RTC->WPR = 0x53;
 2176              		.loc 1 1474 0
 2177 0be4 0C4B     		ldr	r3, .L134
 2178 0be6 4FF05302 		mov	r2, #83
 2179 0bea 5A62     		str	r2, [r3, #36]
1475:../Libraries/STM32F4xx_StdPeriph_Driver/src/stm32f4xx_rtc.c **** 
1476:../Libraries/STM32F4xx_StdPeriph_Driver/src/stm32f4xx_rtc.c ****   /* Clear the Wakeup Timer clock source bits in CR register */
1477:../Libraries/STM32F4xx_StdPeriph_Driver/src/stm32f4xx_rtc.c ****   RTC->CR &= (uint32_t)~RTC_CR_WUCKSEL;
 2180              		.loc 1 1477 0
 2181 0bec 0A4B     		ldr	r3, .L134
 2182 0bee 0A4A     		ldr	r2, .L134
 2183 0bf0 9268     		ldr	r2, [r2, #8]
 2184 0bf2 22F00702 		bic	r2, r2, #7
 2185 0bf6 9A60     		str	r2, [r3, #8]
1478:../Libraries/STM32F4xx_StdPeriph_Driver/src/stm32f4xx_rtc.c **** 
1479:../Libraries/STM32F4xx_StdPeriph_Driver/src/stm32f4xx_rtc.c ****   /* Configure the clock source */
1480:../Libraries/STM32F4xx_StdPeriph_Driver/src/stm32f4xx_rtc.c ****   RTC->CR |= (uint32_t)RTC_WakeUpClock;
 2186              		.loc 1 1480 0
 2187 0bf8 074B     		ldr	r3, .L134
 2188 0bfa 074A     		ldr	r2, .L134
 2189 0bfc 9168     		ldr	r1, [r2, #8]
 2190 0bfe 7A68     		ldr	r2, [r7, #4]
 2191 0c00 0A43     		orrs	r2, r2, r1
 2192 0c02 9A60     		str	r2, [r3, #8]
1481:../Libraries/STM32F4xx_StdPeriph_Driver/src/stm32f4xx_rtc.c ****   
1482:../Libraries/STM32F4xx_StdPeriph_Driver/src/stm32f4xx_rtc.c ****   /* Enable the write protection for RTC registers */
1483:../Libraries/STM32F4xx_StdPeriph_Driver/src/stm32f4xx_rtc.c ****   RTC->WPR = 0xFF; 
 2193              		.loc 1 1483 0
 2194 0c04 044B     		ldr	r3, .L134
 2195 0c06 4FF0FF02 		mov	r2, #255
 2196 0c0a 5A62     		str	r2, [r3, #36]
1484:../Libraries/STM32F4xx_StdPeriph_Driver/src/stm32f4xx_rtc.c **** }
 2197              		.loc 1 1484 0
 2198 0c0c 07F10C07 		add	r7, r7, #12
 2199 0c10 BD46     		mov	sp, r7
 2200 0c12 80BC     		pop	{r7}
 2201 0c14 7047     		bx	lr
 2202              	.L135:
 2203 0c16 00BF     		.align	2
 2204              	.L134:
 2205 0c18 00280040 		.word	1073752064
 2206              		.cfi_endproc
 2207              	.LFE132:
 2209              		.align	2
 2210              		.global	RTC_SetWakeUpCounter
 2211              		.thumb
 2212              		.thumb_func
 2214              	RTC_SetWakeUpCounter:
 2215              	.LFB133:
1485:../Libraries/STM32F4xx_StdPeriph_Driver/src/stm32f4xx_rtc.c **** 
1486:../Libraries/STM32F4xx_StdPeriph_Driver/src/stm32f4xx_rtc.c **** /**
1487:../Libraries/STM32F4xx_StdPeriph_Driver/src/stm32f4xx_rtc.c ****   * @brief  Configures the RTC Wakeup counter.
1488:../Libraries/STM32F4xx_StdPeriph_Driver/src/stm32f4xx_rtc.c ****   * @note   The RTC WakeUp counter can only be written when the RTC WakeUp
1489:../Libraries/STM32F4xx_StdPeriph_Driver/src/stm32f4xx_rtc.c ****   *         is disabled (Use the RTC_WakeUpCmd(DISABLE)).        
1490:../Libraries/STM32F4xx_StdPeriph_Driver/src/stm32f4xx_rtc.c ****   * @param  RTC_WakeUpCounter: specifies the WakeUp counter.
1491:../Libraries/STM32F4xx_StdPeriph_Driver/src/stm32f4xx_rtc.c ****   *          This parameter can be a value from 0x0000 to 0xFFFF. 
1492:../Libraries/STM32F4xx_StdPeriph_Driver/src/stm32f4xx_rtc.c ****   * @retval None
1493:../Libraries/STM32F4xx_StdPeriph_Driver/src/stm32f4xx_rtc.c ****   */
1494:../Libraries/STM32F4xx_StdPeriph_Driver/src/stm32f4xx_rtc.c **** void RTC_SetWakeUpCounter(uint32_t RTC_WakeUpCounter)
1495:../Libraries/STM32F4xx_StdPeriph_Driver/src/stm32f4xx_rtc.c **** {
 2216              		.loc 1 1495 0
 2217              		.cfi_startproc
 2218              		@ args = 0, pretend = 0, frame = 8
 2219              		@ frame_needed = 1, uses_anonymous_args = 0
 2220              		@ link register save eliminated.
 2221 0c1c 80B4     		push	{r7}
 2222              	.LCFI68:
 2223              		.cfi_def_cfa_offset 4
 2224              		.cfi_offset 7, -4
 2225 0c1e 83B0     		sub	sp, sp, #12
 2226              	.LCFI69:
 2227              		.cfi_def_cfa_offset 16
 2228 0c20 00AF     		add	r7, sp, #0
 2229              	.LCFI70:
 2230              		.cfi_def_cfa_register 7
 2231 0c22 7860     		str	r0, [r7, #4]
1496:../Libraries/STM32F4xx_StdPeriph_Driver/src/stm32f4xx_rtc.c ****   /* Check the parameters */
1497:../Libraries/STM32F4xx_StdPeriph_Driver/src/stm32f4xx_rtc.c ****   assert_param(IS_RTC_WAKEUP_COUNTER(RTC_WakeUpCounter));
1498:../Libraries/STM32F4xx_StdPeriph_Driver/src/stm32f4xx_rtc.c ****   
1499:../Libraries/STM32F4xx_StdPeriph_Driver/src/stm32f4xx_rtc.c ****   /* Disable the write protection for RTC registers */
1500:../Libraries/STM32F4xx_StdPeriph_Driver/src/stm32f4xx_rtc.c ****   RTC->WPR = 0xCA;
 2232              		.loc 1 1500 0
 2233 0c24 094B     		ldr	r3, .L137
 2234 0c26 4FF0CA02 		mov	r2, #202
 2235 0c2a 5A62     		str	r2, [r3, #36]
1501:../Libraries/STM32F4xx_StdPeriph_Driver/src/stm32f4xx_rtc.c ****   RTC->WPR = 0x53;
 2236              		.loc 1 1501 0
 2237 0c2c 074B     		ldr	r3, .L137
 2238 0c2e 4FF05302 		mov	r2, #83
 2239 0c32 5A62     		str	r2, [r3, #36]
1502:../Libraries/STM32F4xx_StdPeriph_Driver/src/stm32f4xx_rtc.c ****   
1503:../Libraries/STM32F4xx_StdPeriph_Driver/src/stm32f4xx_rtc.c ****   /* Configure the Wakeup Timer counter */
1504:../Libraries/STM32F4xx_StdPeriph_Driver/src/stm32f4xx_rtc.c ****   RTC->WUTR = (uint32_t)RTC_WakeUpCounter;
 2240              		.loc 1 1504 0
 2241 0c34 054B     		ldr	r3, .L137
 2242 0c36 7A68     		ldr	r2, [r7, #4]
 2243 0c38 5A61     		str	r2, [r3, #20]
1505:../Libraries/STM32F4xx_StdPeriph_Driver/src/stm32f4xx_rtc.c ****   
1506:../Libraries/STM32F4xx_StdPeriph_Driver/src/stm32f4xx_rtc.c ****   /* Enable the write protection for RTC registers */
1507:../Libraries/STM32F4xx_StdPeriph_Driver/src/stm32f4xx_rtc.c ****   RTC->WPR = 0xFF; 
 2244              		.loc 1 1507 0
 2245 0c3a 044B     		ldr	r3, .L137
 2246 0c3c 4FF0FF02 		mov	r2, #255
 2247 0c40 5A62     		str	r2, [r3, #36]
1508:../Libraries/STM32F4xx_StdPeriph_Driver/src/stm32f4xx_rtc.c **** }
 2248              		.loc 1 1508 0
 2249 0c42 07F10C07 		add	r7, r7, #12
 2250 0c46 BD46     		mov	sp, r7
 2251 0c48 80BC     		pop	{r7}
 2252 0c4a 7047     		bx	lr
 2253              	.L138:
 2254              		.align	2
 2255              	.L137:
 2256 0c4c 00280040 		.word	1073752064
 2257              		.cfi_endproc
 2258              	.LFE133:
 2260              		.align	2
 2261              		.global	RTC_GetWakeUpCounter
 2262              		.thumb
 2263              		.thumb_func
 2265              	RTC_GetWakeUpCounter:
 2266              	.LFB134:
1509:../Libraries/STM32F4xx_StdPeriph_Driver/src/stm32f4xx_rtc.c **** 
1510:../Libraries/STM32F4xx_StdPeriph_Driver/src/stm32f4xx_rtc.c **** /**
1511:../Libraries/STM32F4xx_StdPeriph_Driver/src/stm32f4xx_rtc.c ****   * @brief  Returns the RTC WakeUp timer counter value.
1512:../Libraries/STM32F4xx_StdPeriph_Driver/src/stm32f4xx_rtc.c ****   * @param  None
1513:../Libraries/STM32F4xx_StdPeriph_Driver/src/stm32f4xx_rtc.c ****   * @retval The RTC WakeUp Counter value.
1514:../Libraries/STM32F4xx_StdPeriph_Driver/src/stm32f4xx_rtc.c ****   */
1515:../Libraries/STM32F4xx_StdPeriph_Driver/src/stm32f4xx_rtc.c **** uint32_t RTC_GetWakeUpCounter(void)
1516:../Libraries/STM32F4xx_StdPeriph_Driver/src/stm32f4xx_rtc.c **** {
 2267              		.loc 1 1516 0
 2268              		.cfi_startproc
