   1              		.syntax unified
   2              		.cpu cortex-m4
   3              		.fpu softvfp
   4              		.eabi_attribute 20, 1
   5              		.eabi_attribute 21, 1
   6              		.eabi_attribute 23, 3
   7              		.eabi_attribute 24, 1
   8              		.eabi_attribute 25, 1
   9              		.eabi_attribute 26, 1
  10              		.eabi_attribute 30, 6
  11              		.eabi_attribute 34, 1
  12              		.eabi_attribute 18, 4
  13              		.thumb
  14              		.file	"Flash.c"
  15              		.text
  16              	.Ltext0:
  17              		.cfi_sections	.debug_frame
  18              		.align	2
  19              		.global	FlashReset
  20              		.thumb
  21              		.thumb_func
  23              	FlashReset:
  24              	.LFB110:
  25              		.file 1 "../Application/Module/Flash/Flash.c"
   1:../Application/Module/Flash/Flash.c **** /*
   2:../Application/Module/Flash/Flash.c ****  * Flash.c
   3:../Application/Module/Flash/Flash.c ****  *
   4:../Application/Module/Flash/Flash.c ****  *  Created on: 2014.07.17.
   5:../Application/Module/Flash/Flash.c ****  *      Author: Gergo
   6:../Application/Module/Flash/Flash.c ****  */
   7:../Application/Module/Flash/Flash.c **** #include "Flash.h"
   8:../Application/Module/Flash/Flash.c **** #include "stm32f4xx_flash.h"
   9:../Application/Module/Flash/Flash.c **** #include "stm32f4_discovery.h"
  10:../Application/Module/Flash/Flash.c **** #include "Timers.h"
  11:../Application/Module/Flash/Flash.c **** 
  12:../Application/Module/Flash/Flash.c **** 
  13:../Application/Module/Flash/Flash.c **** uint32_t GetSector(uint32_t Address);
  14:../Application/Module/Flash/Flash.c **** 
  15:../Application/Module/Flash/Flash.c **** void FlashReset()
  16:../Application/Module/Flash/Flash.c **** {
  26              		.loc 1 16 0
  27              		.cfi_startproc
  28              		@ args = 0, pretend = 0, frame = 24
  29              		@ frame_needed = 1, uses_anonymous_args = 0
  30 0000 80B5     		push	{r7, lr}
  31              	.LCFI0:
  32              		.cfi_def_cfa_offset 8
  33              		.cfi_offset 7, -8
  34              		.cfi_offset 14, -4
  35 0002 86B0     		sub	sp, sp, #24
  36              	.LCFI1:
  37              		.cfi_def_cfa_offset 32
  38 0004 00AF     		add	r7, sp, #0
  39              	.LCFI2:
  40              		.cfi_def_cfa_register 7
  17:../Application/Module/Flash/Flash.c **** 	uint32_t uwStartSector = 0;
  41              		.loc 1 17 0
  42 0006 4FF00003 		mov	r3, #0
  43 000a 3B61     		str	r3, [r7, #16]
  18:../Application/Module/Flash/Flash.c **** 	uint32_t uwEndSector = 0;
  44              		.loc 1 18 0
  45 000c 4FF00003 		mov	r3, #0
  46 0010 FB60     		str	r3, [r7, #12]
  19:../Application/Module/Flash/Flash.c **** 	uint32_t uwAddress = 0;
  47              		.loc 1 19 0
  48 0012 4FF00003 		mov	r3, #0
  49 0016 BB60     		str	r3, [r7, #8]
  20:../Application/Module/Flash/Flash.c **** 	uint32_t uwSectorCounter = 0;
  50              		.loc 1 20 0
  51 0018 4FF00003 		mov	r3, #0
  52 001c 7B61     		str	r3, [r7, #20]
  21:../Application/Module/Flash/Flash.c **** 	__IO uint32_t uwData32 = 0;
  53              		.loc 1 21 0
  54 001e 4FF00003 		mov	r3, #0
  55 0022 7B60     		str	r3, [r7, #4]
  22:../Application/Module/Flash/Flash.c **** 	__IO uint32_t uwMemoryProgramStatus = 0;
  56              		.loc 1 22 0
  57 0024 4FF00003 		mov	r3, #0
  58 0028 3B60     		str	r3, [r7, #0]
  23:../Application/Module/Flash/Flash.c **** 
  24:../Application/Module/Flash/Flash.c **** 	FLASH_Unlock();
  59              		.loc 1 24 0
  60 002a FFF7FEFF 		bl	FLASH_Unlock
  25:../Application/Module/Flash/Flash.c **** 
  26:../Application/Module/Flash/Flash.c **** 	/* Erase the user Flash area ************************************************/
  27:../Application/Module/Flash/Flash.c **** 	/* area defined by FLASH_USER_START_ADDR and FLASH_USER_END_ADDR */
  28:../Application/Module/Flash/Flash.c **** 
  29:../Application/Module/Flash/Flash.c **** 	/* Clear pending flags (if any) */
  30:../Application/Module/Flash/Flash.c **** 	FLASH_ClearFlag(FLASH_FLAG_EOP | FLASH_FLAG_OPERR | FLASH_FLAG_WRPERR |
  61              		.loc 1 30 0
  62 002e 4FF0F300 		mov	r0, #243
  63 0032 FFF7FEFF 		bl	FLASH_ClearFlag
  31:../Application/Module/Flash/Flash.c **** 				   FLASH_FLAG_PGAERR | FLASH_FLAG_PGPERR|FLASH_FLAG_PGSERR);
  32:../Application/Module/Flash/Flash.c **** 
  33:../Application/Module/Flash/Flash.c **** 	/* Get the number of the start and end sectors */
  34:../Application/Module/Flash/Flash.c **** 	uwStartSector = GetSector(FLASH_USER_START_ADDR);
  64              		.loc 1 34 0
  65 0036 1548     		ldr	r0, .L7
  66 0038 FFF7FEFF 		bl	GetSector
  67 003c 3861     		str	r0, [r7, #16]
  35:../Application/Module/Flash/Flash.c **** 	uwEndSector = GetSector(FLASH_USER_END_ADDR);
  68              		.loc 1 35 0
  69 003e 1448     		ldr	r0, .L7+4
  70 0040 FFF7FEFF 		bl	GetSector
  71 0044 F860     		str	r0, [r7, #12]
  36:../Application/Module/Flash/Flash.c **** 
  37:../Application/Module/Flash/Flash.c **** 	/* Strat the erase operation */
  38:../Application/Module/Flash/Flash.c **** 	uwSectorCounter = uwStartSector;
  72              		.loc 1 38 0
  73 0046 3B69     		ldr	r3, [r7, #16]
  74 0048 7B61     		str	r3, [r7, #20]
  39:../Application/Module/Flash/Flash.c **** 
  40:../Application/Module/Flash/Flash.c **** 	while (uwSectorCounter <= uwEndSector)
  75              		.loc 1 40 0
  76 004a 14E0     		b	.L2
  77              	.L6:
  41:../Application/Module/Flash/Flash.c **** 	{
  42:../Application/Module/Flash/Flash.c **** 		/* Device voltage range supposed to be [2.7V to 3.6V], the operation will
  43:../Application/Module/Flash/Flash.c **** 		be done by word */
  44:../Application/Module/Flash/Flash.c **** 		if (FLASH_EraseSector(uwSectorCounter, VoltageRange_3) != FLASH_COMPLETE)
  78              		.loc 1 44 0
  79 004c 7869     		ldr	r0, [r7, #20]
  80 004e 4FF00201 		mov	r1, #2
  81 0052 FFF7FEFF 		bl	FLASH_EraseSector
  82 0056 0346     		mov	r3, r0
  83 0058 082B     		cmp	r3, #8
  84 005a 00D0     		beq	.L3
  85              	.L4:
  45:../Application/Module/Flash/Flash.c **** 		{
  46:../Application/Module/Flash/Flash.c **** 		/* Error occurred while sector erase.
  47:../Application/Module/Flash/Flash.c **** 		  User can add here some code to deal with this error  */
  48:../Application/Module/Flash/Flash.c **** 			while (1)
  49:../Application/Module/Flash/Flash.c **** 			{
  50:../Application/Module/Flash/Flash.c **** 			}
  86              		.loc 1 50 0 discriminator 1
  87 005c FEE7     		b	.L4
  88              	.L3:
  51:../Application/Module/Flash/Flash.c **** 		}
  52:../Application/Module/Flash/Flash.c **** 		/* jump to the next sector */
  53:../Application/Module/Flash/Flash.c **** 		if (uwSectorCounter == FLASH_Sector_11)
  89              		.loc 1 53 0
  90 005e 7B69     		ldr	r3, [r7, #20]
  91 0060 582B     		cmp	r3, #88
  92 0062 04D1     		bne	.L5
  54:../Application/Module/Flash/Flash.c **** 		{
  55:../Application/Module/Flash/Flash.c **** 			uwSectorCounter += 40;
  93              		.loc 1 55 0
  94 0064 7B69     		ldr	r3, [r7, #20]
  95 0066 03F12803 		add	r3, r3, #40
  96 006a 7B61     		str	r3, [r7, #20]
  97 006c 03E0     		b	.L2
  98              	.L5:
  56:../Application/Module/Flash/Flash.c **** 		}
  57:../Application/Module/Flash/Flash.c **** 		else
  58:../Application/Module/Flash/Flash.c **** 		{
  59:../Application/Module/Flash/Flash.c **** 			uwSectorCounter += 8;
  99              		.loc 1 59 0
 100 006e 7B69     		ldr	r3, [r7, #20]
 101 0070 03F10803 		add	r3, r3, #8
 102 0074 7B61     		str	r3, [r7, #20]
 103              	.L2:
  40:../Application/Module/Flash/Flash.c **** 	while (uwSectorCounter <= uwEndSector)
 104              		.loc 1 40 0 discriminator 1
 105 0076 7A69     		ldr	r2, [r7, #20]
 106 0078 FB68     		ldr	r3, [r7, #12]
 107 007a 9A42     		cmp	r2, r3
 108 007c E6D9     		bls	.L6
  60:../Application/Module/Flash/Flash.c **** 		}
  61:../Application/Module/Flash/Flash.c **** 	}
  62:../Application/Module/Flash/Flash.c **** 
  63:../Application/Module/Flash/Flash.c **** 	FLASH_Lock();
 109              		.loc 1 63 0
 110 007e FFF7FEFF 		bl	FLASH_Lock
  64:../Application/Module/Flash/Flash.c **** }
 111              		.loc 1 64 0
 112 0082 07F11807 		add	r7, r7, #24
 113 0086 BD46     		mov	sp, r7
 114 0088 80BD     		pop	{r7, pc}
 115              	.L8:
 116 008a 00BF     		.align	2
 117              	.L7:
 118 008c 00000108 		.word	134283264
 119 0090 00000E08 		.word	135135232
 120              		.cfi_endproc
 121              	.LFE110:
 123              		.align	2
 124              		.global	FlashSample
 125              		.thumb
 126              		.thumb_func
 128              	FlashSample:
 129              	.LFB111:
  65:../Application/Module/Flash/Flash.c **** 
  66:../Application/Module/Flash/Flash.c **** void FlashSample()
  67:../Application/Module/Flash/Flash.c **** {
 130              		.loc 1 67 0
 131              		.cfi_startproc
 132              		@ args = 0, pretend = 0, frame = 24
 133              		@ frame_needed = 1, uses_anonymous_args = 0
 134 0094 80B5     		push	{r7, lr}
 135              	.LCFI3:
 136              		.cfi_def_cfa_offset 8
 137              		.cfi_offset 7, -8
 138              		.cfi_offset 14, -4
 139 0096 86B0     		sub	sp, sp, #24
 140              	.LCFI4:
 141              		.cfi_def_cfa_offset 32
 142 0098 00AF     		add	r7, sp, #0
 143              	.LCFI5:
 144              		.cfi_def_cfa_register 7
  68:../Application/Module/Flash/Flash.c **** 	uint32_t uwStartSector = 0;
 145              		.loc 1 68 0
 146 009a 4FF00003 		mov	r3, #0
 147 009e FB60     		str	r3, [r7, #12]
  69:../Application/Module/Flash/Flash.c **** 	uint32_t uwEndSector = 0;
 148              		.loc 1 69 0
 149 00a0 4FF00003 		mov	r3, #0
 150 00a4 BB60     		str	r3, [r7, #8]
  70:../Application/Module/Flash/Flash.c **** 	uint32_t uwAddress = 0;
 151              		.loc 1 70 0
 152 00a6 4FF00003 		mov	r3, #0
 153 00aa 7B61     		str	r3, [r7, #20]
  71:../Application/Module/Flash/Flash.c **** 	uint32_t uwSectorCounter = 0;
 154              		.loc 1 71 0
 155 00ac 4FF00003 		mov	r3, #0
 156 00b0 3B61     		str	r3, [r7, #16]
  72:../Application/Module/Flash/Flash.c **** 	__IO uint32_t uwData32 = 0;
 157              		.loc 1 72 0
 158 00b2 4FF00003 		mov	r3, #0
 159 00b6 7B60     		str	r3, [r7, #4]
  73:../Application/Module/Flash/Flash.c **** 	__IO uint32_t uwMemoryProgramStatus = 0;
 160              		.loc 1 73 0
 161 00b8 4FF00003 		mov	r3, #0
 162 00bc 3B60     		str	r3, [r7, #0]
  74:../Application/Module/Flash/Flash.c **** 
  75:../Application/Module/Flash/Flash.c **** 	STM_EVAL_LEDInit(LED4);
 163              		.loc 1 75 0
 164 00be 4FF00000 		mov	r0, #0
 165 00c2 FFF7FEFF 		bl	STM_EVAL_LEDInit
  76:../Application/Module/Flash/Flash.c **** 	STM_EVAL_LEDInit(LED5);
 166              		.loc 1 76 0
 167 00c6 4FF00200 		mov	r0, #2
 168 00ca FFF7FEFF 		bl	STM_EVAL_LEDInit
  77:../Application/Module/Flash/Flash.c **** 
  78:../Application/Module/Flash/Flash.c **** 	FLASH_Unlock();
 169              		.loc 1 78 0
 170 00ce FFF7FEFF 		bl	FLASH_Unlock
  79:../Application/Module/Flash/Flash.c **** 
  80:../Application/Module/Flash/Flash.c **** 	/* Erase the user Flash area ************************************************/
  81:../Application/Module/Flash/Flash.c **** 	/* area defined by FLASH_USER_START_ADDR and FLASH_USER_END_ADDR */
  82:../Application/Module/Flash/Flash.c **** 
  83:../Application/Module/Flash/Flash.c **** 	/* Clear pending flags (if any) */
  84:../Application/Module/Flash/Flash.c **** 	FLASH_ClearFlag(FLASH_FLAG_EOP | FLASH_FLAG_OPERR | FLASH_FLAG_WRPERR |
 171              		.loc 1 84 0
 172 00d2 4FF0F300 		mov	r0, #243
 173 00d6 FFF7FEFF 		bl	FLASH_ClearFlag
  85:../Application/Module/Flash/Flash.c **** 				   FLASH_FLAG_PGAERR | FLASH_FLAG_PGPERR|FLASH_FLAG_PGSERR);
  86:../Application/Module/Flash/Flash.c **** 
  87:../Application/Module/Flash/Flash.c **** 	/* Get the number of the start and end sectors */
  88:../Application/Module/Flash/Flash.c **** 	uwStartSector = GetSector(FLASH_USER_START_ADDR);
 174              		.loc 1 88 0
 175 00da 3048     		ldr	r0, .L23
 176 00dc FFF7FEFF 		bl	GetSector
 177 00e0 F860     		str	r0, [r7, #12]
  89:../Application/Module/Flash/Flash.c **** 	uwEndSector = GetSector(FLASH_USER_END_ADDR);
 178              		.loc 1 89 0
 179 00e2 2F48     		ldr	r0, .L23+4
 180 00e4 FFF7FEFF 		bl	GetSector
 181 00e8 B860     		str	r0, [r7, #8]
  90:../Application/Module/Flash/Flash.c **** 
  91:../Application/Module/Flash/Flash.c **** 	/* Strat the erase operation */
  92:../Application/Module/Flash/Flash.c **** 	uwSectorCounter = uwStartSector;
 182              		.loc 1 92 0
 183 00ea FB68     		ldr	r3, [r7, #12]
 184 00ec 3B61     		str	r3, [r7, #16]
  93:../Application/Module/Flash/Flash.c **** 
  94:../Application/Module/Flash/Flash.c **** 	while (uwSectorCounter <= uwEndSector)
 185              		.loc 1 94 0
 186 00ee 14E0     		b	.L10
 187              	.L14:
  95:../Application/Module/Flash/Flash.c **** 	{
  96:../Application/Module/Flash/Flash.c **** 		/* Device voltage range supposed to be [2.7V to 3.6V], the operation will
  97:../Application/Module/Flash/Flash.c **** 		be done by word */
  98:../Application/Module/Flash/Flash.c **** 		if (FLASH_EraseSector(uwSectorCounter, VoltageRange_3) != FLASH_COMPLETE)
 188              		.loc 1 98 0
 189 00f0 3869     		ldr	r0, [r7, #16]
 190 00f2 4FF00201 		mov	r1, #2
 191 00f6 FFF7FEFF 		bl	FLASH_EraseSector
 192 00fa 0346     		mov	r3, r0
 193 00fc 082B     		cmp	r3, #8
 194 00fe 00D0     		beq	.L11
 195              	.L12:
  99:../Application/Module/Flash/Flash.c **** 		{
 100:../Application/Module/Flash/Flash.c **** 		/* Error occurred while sector erase.
 101:../Application/Module/Flash/Flash.c **** 		  User can add here some code to deal with this error  */
 102:../Application/Module/Flash/Flash.c **** 			while (1)
 103:../Application/Module/Flash/Flash.c **** 			{
 104:../Application/Module/Flash/Flash.c **** 			}
 196              		.loc 1 104 0 discriminator 1
 197 0100 FEE7     		b	.L12
 198              	.L11:
 105:../Application/Module/Flash/Flash.c **** 		}
 106:../Application/Module/Flash/Flash.c **** 		/* jump to the next sector */
 107:../Application/Module/Flash/Flash.c **** 		if (uwSectorCounter == FLASH_Sector_11)
 199              		.loc 1 107 0
 200 0102 3B69     		ldr	r3, [r7, #16]
 201 0104 582B     		cmp	r3, #88
 202 0106 04D1     		bne	.L13
 108:../Application/Module/Flash/Flash.c **** 		{
 109:../Application/Module/Flash/Flash.c **** 			uwSectorCounter += 40;
 203              		.loc 1 109 0
 204 0108 3B69     		ldr	r3, [r7, #16]
 205 010a 03F12803 		add	r3, r3, #40
 206 010e 3B61     		str	r3, [r7, #16]
 207 0110 03E0     		b	.L10
 208              	.L13:
 110:../Application/Module/Flash/Flash.c **** 		}
 111:../Application/Module/Flash/Flash.c **** 		else
 112:../Application/Module/Flash/Flash.c **** 		{
 113:../Application/Module/Flash/Flash.c **** 			uwSectorCounter += 8;
 209              		.loc 1 113 0
 210 0112 3B69     		ldr	r3, [r7, #16]
 211 0114 03F10803 		add	r3, r3, #8
 212 0118 3B61     		str	r3, [r7, #16]
 213              	.L10:
  94:../Application/Module/Flash/Flash.c **** 	while (uwSectorCounter <= uwEndSector)
 214              		.loc 1 94 0 discriminator 1
 215 011a 3A69     		ldr	r2, [r7, #16]
 216 011c BB68     		ldr	r3, [r7, #8]
 217 011e 9A42     		cmp	r2, r3
 218 0120 E6D9     		bls	.L14
 114:../Application/Module/Flash/Flash.c **** 		}
 115:../Application/Module/Flash/Flash.c **** 	}
 116:../Application/Module/Flash/Flash.c **** 
 117:../Application/Module/Flash/Flash.c **** 	/* Program the user Flash area word by word ********************************/
 118:../Application/Module/Flash/Flash.c **** 	/* area defined by FLASH_USER_START_ADDR and FLASH_USER_END_ADDR */
 119:../Application/Module/Flash/Flash.c **** 
 120:../Application/Module/Flash/Flash.c **** 	uwAddress = FLASH_USER_START_ADDR;
 219              		.loc 1 120 0
 220 0122 1E4B     		ldr	r3, .L23
 221 0124 7B61     		str	r3, [r7, #20]
 121:../Application/Module/Flash/Flash.c **** 
 122:../Application/Module/Flash/Flash.c **** 	while (uwAddress < FLASH_USER_END_ADDR)
 222              		.loc 1 122 0
 223 0126 0CE0     		b	.L15
 224              	.L17:
 123:../Application/Module/Flash/Flash.c **** 	{
 124:../Application/Module/Flash/Flash.c **** 		if (FLASH_ProgramWord(uwAddress, DATA_32) == FLASH_COMPLETE)
 225              		.loc 1 124 0
 226 0128 7869     		ldr	r0, [r7, #20]
 227 012a 1E49     		ldr	r1, .L23+8
 228 012c FFF7FEFF 		bl	FLASH_ProgramWord
 229 0130 0346     		mov	r3, r0
 230 0132 082B     		cmp	r3, #8
 231 0134 04D1     		bne	.L16
 125:../Application/Module/Flash/Flash.c **** 		{
 126:../Application/Module/Flash/Flash.c **** 			uwAddress = uwAddress + 4;
 232              		.loc 1 126 0
 233 0136 7B69     		ldr	r3, [r7, #20]
 234 0138 03F10403 		add	r3, r3, #4
 235 013c 7B61     		str	r3, [r7, #20]
 236 013e 00E0     		b	.L15
 237              	.L16:
 127:../Application/Module/Flash/Flash.c **** 		}
 128:../Application/Module/Flash/Flash.c **** 		else
 129:../Application/Module/Flash/Flash.c **** 		{
 130:../Application/Module/Flash/Flash.c **** 		/* Error occurred while writing data in Flash memory.
 131:../Application/Module/Flash/Flash.c **** 		  User can add here some code to deal with this error */
 132:../Application/Module/Flash/Flash.c **** 			while (1)
 133:../Application/Module/Flash/Flash.c **** 			{
 134:../Application/Module/Flash/Flash.c **** 			}
 238              		.loc 1 134 0 discriminator 1
 239 0140 FEE7     		b	.L16
 240              	.L15:
 122:../Application/Module/Flash/Flash.c **** 	while (uwAddress < FLASH_USER_END_ADDR)
 241              		.loc 1 122 0 discriminator 1
 242 0142 7A69     		ldr	r2, [r7, #20]
 243 0144 184B     		ldr	r3, .L23+12
 244 0146 9A42     		cmp	r2, r3
 245 0148 EED9     		bls	.L17
 135:../Application/Module/Flash/Flash.c **** 		}
 136:../Application/Module/Flash/Flash.c **** 	}
 137:../Application/Module/Flash/Flash.c **** 
 138:../Application/Module/Flash/Flash.c **** 	/* Lock the Flash to disable the flash control register access (recommended
 139:../Application/Module/Flash/Flash.c **** 	  to protect the FLASH memory against possible unwanted operation) */
 140:../Application/Module/Flash/Flash.c **** 	FLASH_Lock();
 246              		.loc 1 140 0
 247 014a FFF7FEFF 		bl	FLASH_Lock
 141:../Application/Module/Flash/Flash.c **** 
 142:../Application/Module/Flash/Flash.c **** 	/* Check if the programmed data is OK ***************************************/
 143:../Application/Module/Flash/Flash.c **** 	/*  MemoryProgramStatus = 0: data programmed correctly
 144:../Application/Module/Flash/Flash.c **** 	   MemoryProgramStatus != 0: number of words not programmed correctly */
 145:../Application/Module/Flash/Flash.c **** 	uwAddress = FLASH_USER_START_ADDR;
 248              		.loc 1 145 0
 249 014e 134B     		ldr	r3, .L23
 250 0150 7B61     		str	r3, [r7, #20]
 146:../Application/Module/Flash/Flash.c **** 	uwMemoryProgramStatus = 0;
 251              		.loc 1 146 0
 252 0152 4FF00003 		mov	r3, #0
 253 0156 3B60     		str	r3, [r7, #0]
 147:../Application/Module/Flash/Flash.c **** 
 148:../Application/Module/Flash/Flash.c **** 	while (uwAddress < FLASH_USER_END_ADDR)
 254              		.loc 1 148 0
 255 0158 0EE0     		b	.L18
 256              	.L20:
 149:../Application/Module/Flash/Flash.c **** 	{
 150:../Application/Module/Flash/Flash.c **** 		uwData32 = *(__IO uint32_t*)uwAddress;
 257              		.loc 1 150 0
 258 015a 7B69     		ldr	r3, [r7, #20]
 259 015c 1B68     		ldr	r3, [r3, #0]
 260 015e 7B60     		str	r3, [r7, #4]
 151:../Application/Module/Flash/Flash.c **** 
 152:../Application/Module/Flash/Flash.c **** 		if (uwData32 != DATA_32)
 261              		.loc 1 152 0
 262 0160 7A68     		ldr	r2, [r7, #4]
 263 0162 104B     		ldr	r3, .L23+8
 264 0164 9A42     		cmp	r2, r3
 265 0166 03D0     		beq	.L19
 153:../Application/Module/Flash/Flash.c **** 		{
 154:../Application/Module/Flash/Flash.c **** 			uwMemoryProgramStatus++;
 266              		.loc 1 154 0
 267 0168 3B68     		ldr	r3, [r7, #0]
 268 016a 03F10103 		add	r3, r3, #1
 269 016e 3B60     		str	r3, [r7, #0]
 270              	.L19:
 155:../Application/Module/Flash/Flash.c **** 		}
 156:../Application/Module/Flash/Flash.c **** 
 157:../Application/Module/Flash/Flash.c **** 		uwAddress = uwAddress + 4;
 271              		.loc 1 157 0
 272 0170 7B69     		ldr	r3, [r7, #20]
 273 0172 03F10403 		add	r3, r3, #4
 274 0176 7B61     		str	r3, [r7, #20]
 275              	.L18:
 148:../Application/Module/Flash/Flash.c **** 	while (uwAddress < FLASH_USER_END_ADDR)
 276              		.loc 1 148 0 discriminator 1
 277 0178 7A69     		ldr	r2, [r7, #20]
 278 017a 0B4B     		ldr	r3, .L23+12
 279 017c 9A42     		cmp	r2, r3
 280 017e ECD9     		bls	.L20
 158:../Application/Module/Flash/Flash.c **** 	}
 159:../Application/Module/Flash/Flash.c **** 
 160:../Application/Module/Flash/Flash.c **** 	/* Check Data correctness */
 161:../Application/Module/Flash/Flash.c **** 	if(uwMemoryProgramStatus)
 281              		.loc 1 161 0
 282 0180 3B68     		ldr	r3, [r7, #0]
 283 0182 002B     		cmp	r3, #0
 284 0184 04D0     		beq	.L21
 162:../Application/Module/Flash/Flash.c **** 	{
 163:../Application/Module/Flash/Flash.c **** 		/* KO */
 164:../Application/Module/Flash/Flash.c **** 		/* Turn on LD2 */
 165:../Application/Module/Flash/Flash.c **** 		STM_EVAL_LEDOn(LED4);
 285              		.loc 1 165 0
 286 0186 4FF00000 		mov	r0, #0
 287 018a FFF7FEFF 		bl	STM_EVAL_LEDOn
 288 018e 03E0     		b	.L22
 289              	.L21:
 166:../Application/Module/Flash/Flash.c **** 	}
 167:../Application/Module/Flash/Flash.c **** 	else
 168:../Application/Module/Flash/Flash.c **** 	{
 169:../Application/Module/Flash/Flash.c **** 		/* OK */
 170:../Application/Module/Flash/Flash.c **** 		/* Turn on LD1 */
 171:../Application/Module/Flash/Flash.c **** 		STM_EVAL_LEDOn(LED5);
 290              		.loc 1 171 0
 291 0190 4FF00200 		mov	r0, #2
 292 0194 FFF7FEFF 		bl	STM_EVAL_LEDOn
 293              	.L22:
 172:../Application/Module/Flash/Flash.c **** 	}
 173:../Application/Module/Flash/Flash.c **** 
 174:../Application/Module/Flash/Flash.c **** 	while (1)
 175:../Application/Module/Flash/Flash.c **** 	{
 176:../Application/Module/Flash/Flash.c **** 	}
 294              		.loc 1 176 0 discriminator 1
 295 0198 FEE7     		b	.L22
 296              	.L24:
 297 019a 00BF     		.align	2
 298              	.L23:
 299 019c 00000108 		.word	134283264
 300 01a0 00000E08 		.word	135135232
 301 01a4 78563412 		.word	305419896
 302 01a8 FFFF0D08 		.word	135135231
 303              		.cfi_endproc
 304              	.LFE111:
 306              		.align	2
 307              		.global	GetSector
 308              		.thumb
 309              		.thumb_func
 311              	GetSector:
 312              	.LFB112:
 177:../Application/Module/Flash/Flash.c **** }
 178:../Application/Module/Flash/Flash.c **** 
 179:../Application/Module/Flash/Flash.c **** /**
 180:../Application/Module/Flash/Flash.c ****    * @brief  Gets the sector of a given address
 181:../Application/Module/Flash/Flash.c ****    * @param  None
 182:../Application/Module/Flash/Flash.c ****    * @retval The sector of a given address
 183:../Application/Module/Flash/Flash.c ****    */
 184:../Application/Module/Flash/Flash.c **** uint32_t GetSector(uint32_t Address)
 185:../Application/Module/Flash/Flash.c **** {
 313              		.loc 1 185 0
 314              		.cfi_startproc
 315              		@ args = 0, pretend = 0, frame = 16
 316              		@ frame_needed = 1, uses_anonymous_args = 0
 317              		@ link register save eliminated.
 318 01ac 80B4     		push	{r7}
 319              	.LCFI6:
 320              		.cfi_def_cfa_offset 4
 321              		.cfi_offset 7, -4
 322 01ae 85B0     		sub	sp, sp, #20
 323              	.LCFI7:
 324              		.cfi_def_cfa_offset 24
 325 01b0 00AF     		add	r7, sp, #0
 326              	.LCFI8:
 327              		.cfi_def_cfa_register 7
 328 01b2 7860     		str	r0, [r7, #4]
 186:../Application/Module/Flash/Flash.c **** 	uint32_t sector = 0;
 329              		.loc 1 186 0
 330 01b4 4FF00003 		mov	r3, #0
 331 01b8 FB60     		str	r3, [r7, #12]
 187:../Application/Module/Flash/Flash.c **** 
 188:../Application/Module/Flash/Flash.c **** 	if((Address < ADDR_FLASH_SECTOR_1) && (Address >= ADDR_FLASH_SECTOR_0))
 332              		.loc 1 188 0
 333 01ba 7A68     		ldr	r2, [r7, #4]
 334 01bc 464B     		ldr	r3, .L39
 335 01be 9A42     		cmp	r2, r3
 336 01c0 08D8     		bhi	.L26
 337              		.loc 1 188 0 is_stmt 0 discriminator 1
 338 01c2 7A68     		ldr	r2, [r7, #4]
 339 01c4 6FF07843 		mvn	r3, #-134217728
 340 01c8 9A42     		cmp	r2, r3
 341 01ca 03D9     		bls	.L26
 189:../Application/Module/Flash/Flash.c **** 	{
 190:../Application/Module/Flash/Flash.c **** 	 sector = FLASH_Sector_0;
 342              		.loc 1 190 0 is_stmt 1
 343 01cc 4FF00003 		mov	r3, #0
 344 01d0 FB60     		str	r3, [r7, #12]
 345 01d2 7AE0     		b	.L27
 346              	.L26:
 191:../Application/Module/Flash/Flash.c **** 	}
 192:../Application/Module/Flash/Flash.c **** 	else if((Address < ADDR_FLASH_SECTOR_2) && (Address >= ADDR_FLASH_SECTOR_1))
 347              		.loc 1 192 0
 348 01d4 7A68     		ldr	r2, [r7, #4]
 349 01d6 414B     		ldr	r3, .L39+4
 350 01d8 9A42     		cmp	r2, r3
 351 01da 07D8     		bhi	.L28
 352              		.loc 1 192 0 is_stmt 0 discriminator 1
 353 01dc 7A68     		ldr	r2, [r7, #4]
 354 01de 3E4B     		ldr	r3, .L39
 355 01e0 9A42     		cmp	r2, r3
 356 01e2 03D9     		bls	.L28
 193:../Application/Module/Flash/Flash.c **** 	{
 194:../Application/Module/Flash/Flash.c **** 	 sector = FLASH_Sector_1;
 357              		.loc 1 194 0 is_stmt 1
 358 01e4 4FF00803 		mov	r3, #8
 359 01e8 FB60     		str	r3, [r7, #12]
 360 01ea 6EE0     		b	.L27
 361              	.L28:
 195:../Application/Module/Flash/Flash.c **** 	}
 196:../Application/Module/Flash/Flash.c **** 	else if((Address < ADDR_FLASH_SECTOR_3) && (Address >= ADDR_FLASH_SECTOR_2))
 362              		.loc 1 196 0
 363 01ec 7A68     		ldr	r2, [r7, #4]
 364 01ee 3C4B     		ldr	r3, .L39+8
 365 01f0 9A42     		cmp	r2, r3
 366 01f2 07D8     		bhi	.L29
 367              		.loc 1 196 0 is_stmt 0 discriminator 1
 368 01f4 7A68     		ldr	r2, [r7, #4]
 369 01f6 394B     		ldr	r3, .L39+4
 370 01f8 9A42     		cmp	r2, r3
 371 01fa 03D9     		bls	.L29
 197:../Application/Module/Flash/Flash.c **** 	{
 198:../Application/Module/Flash/Flash.c **** 	 sector = FLASH_Sector_2;
 372              		.loc 1 198 0 is_stmt 1
 373 01fc 4FF01003 		mov	r3, #16
 374 0200 FB60     		str	r3, [r7, #12]
 375 0202 62E0     		b	.L27
 376              	.L29:
 199:../Application/Module/Flash/Flash.c **** 	}
 200:../Application/Module/Flash/Flash.c **** 	else if((Address < ADDR_FLASH_SECTOR_4) && (Address >= ADDR_FLASH_SECTOR_3))
 377              		.loc 1 200 0
 378 0204 7A68     		ldr	r2, [r7, #4]
 379 0206 374B     		ldr	r3, .L39+12
 380 0208 9A42     		cmp	r2, r3
 381 020a 07D8     		bhi	.L30
 382              		.loc 1 200 0 is_stmt 0 discriminator 1
 383 020c 7A68     		ldr	r2, [r7, #4]
 384 020e 344B     		ldr	r3, .L39+8
 385 0210 9A42     		cmp	r2, r3
 386 0212 03D9     		bls	.L30
 201:../Application/Module/Flash/Flash.c **** 	{
 202:../Application/Module/Flash/Flash.c **** 	 sector = FLASH_Sector_3;
 387              		.loc 1 202 0 is_stmt 1
 388 0214 4FF01803 		mov	r3, #24
 389 0218 FB60     		str	r3, [r7, #12]
 390 021a 56E0     		b	.L27
 391              	.L30:
 203:../Application/Module/Flash/Flash.c **** 	}
 204:../Application/Module/Flash/Flash.c **** 	else if((Address < ADDR_FLASH_SECTOR_5) && (Address >= ADDR_FLASH_SECTOR_4))
 392              		.loc 1 204 0
 393 021c 7A68     		ldr	r2, [r7, #4]
 394 021e 324B     		ldr	r3, .L39+16
 395 0220 9A42     		cmp	r2, r3
 396 0222 07D8     		bhi	.L31
 397              		.loc 1 204 0 is_stmt 0 discriminator 1
 398 0224 7A68     		ldr	r2, [r7, #4]
 399 0226 2F4B     		ldr	r3, .L39+12
 400 0228 9A42     		cmp	r2, r3
 401 022a 03D9     		bls	.L31
 205:../Application/Module/Flash/Flash.c **** 	{
 206:../Application/Module/Flash/Flash.c **** 	 sector = FLASH_Sector_4;
 402              		.loc 1 206 0 is_stmt 1
 403 022c 4FF02003 		mov	r3, #32
 404 0230 FB60     		str	r3, [r7, #12]
 405 0232 4AE0     		b	.L27
 406              	.L31:
 207:../Application/Module/Flash/Flash.c **** 	}
 208:../Application/Module/Flash/Flash.c **** 	else if((Address < ADDR_FLASH_SECTOR_6) && (Address >= ADDR_FLASH_SECTOR_5))
 407              		.loc 1 208 0
 408 0234 7A68     		ldr	r2, [r7, #4]
 409 0236 2D4B     		ldr	r3, .L39+20
 410 0238 9A42     		cmp	r2, r3
 411 023a 07D8     		bhi	.L32
 412              		.loc 1 208 0 is_stmt 0 discriminator 1
 413 023c 7A68     		ldr	r2, [r7, #4]
 414 023e 2A4B     		ldr	r3, .L39+16
 415 0240 9A42     		cmp	r2, r3
 416 0242 03D9     		bls	.L32
 209:../Application/Module/Flash/Flash.c **** 	{
 210:../Application/Module/Flash/Flash.c **** 	 sector = FLASH_Sector_5;
 417              		.loc 1 210 0 is_stmt 1
 418 0244 4FF02803 		mov	r3, #40
 419 0248 FB60     		str	r3, [r7, #12]
 420 024a 3EE0     		b	.L27
 421              	.L32:
 211:../Application/Module/Flash/Flash.c **** 	}
 212:../Application/Module/Flash/Flash.c **** 	else if((Address < ADDR_FLASH_SECTOR_7) && (Address >= ADDR_FLASH_SECTOR_6))
 422              		.loc 1 212 0
 423 024c 7A68     		ldr	r2, [r7, #4]
 424 024e 284B     		ldr	r3, .L39+24
 425 0250 9A42     		cmp	r2, r3
 426 0252 07D8     		bhi	.L33
 427              		.loc 1 212 0 is_stmt 0 discriminator 1
 428 0254 7A68     		ldr	r2, [r7, #4]
 429 0256 254B     		ldr	r3, .L39+20
 430 0258 9A42     		cmp	r2, r3
 431 025a 03D9     		bls	.L33
 213:../Application/Module/Flash/Flash.c **** 	{
 214:../Application/Module/Flash/Flash.c **** 	 sector = FLASH_Sector_6;
 432              		.loc 1 214 0 is_stmt 1
 433 025c 4FF03003 		mov	r3, #48
 434 0260 FB60     		str	r3, [r7, #12]
 435 0262 32E0     		b	.L27
 436              	.L33:
 215:../Application/Module/Flash/Flash.c **** 	}
 216:../Application/Module/Flash/Flash.c **** 	else if((Address < ADDR_FLASH_SECTOR_8) && (Address >= ADDR_FLASH_SECTOR_7))
 437              		.loc 1 216 0
 438 0264 7A68     		ldr	r2, [r7, #4]
 439 0266 234B     		ldr	r3, .L39+28
 440 0268 9A42     		cmp	r2, r3
 441 026a 07D8     		bhi	.L34
 442              		.loc 1 216 0 is_stmt 0 discriminator 1
 443 026c 7A68     		ldr	r2, [r7, #4]
 444 026e 204B     		ldr	r3, .L39+24
 445 0270 9A42     		cmp	r2, r3
 446 0272 03D9     		bls	.L34
 217:../Application/Module/Flash/Flash.c **** 	{
 218:../Application/Module/Flash/Flash.c **** 	 sector = FLASH_Sector_7;
 447              		.loc 1 218 0 is_stmt 1
 448 0274 4FF03803 		mov	r3, #56
 449 0278 FB60     		str	r3, [r7, #12]
 450 027a 26E0     		b	.L27
 451              	.L34:
 219:../Application/Module/Flash/Flash.c **** 	}
 220:../Application/Module/Flash/Flash.c **** 	else if((Address < ADDR_FLASH_SECTOR_9) && (Address >= ADDR_FLASH_SECTOR_8))
 452              		.loc 1 220 0
 453 027c 7A68     		ldr	r2, [r7, #4]
 454 027e 1E4B     		ldr	r3, .L39+32
 455 0280 9A42     		cmp	r2, r3
 456 0282 07D8     		bhi	.L35
 457              		.loc 1 220 0 is_stmt 0 discriminator 1
 458 0284 7A68     		ldr	r2, [r7, #4]
 459 0286 1B4B     		ldr	r3, .L39+28
 460 0288 9A42     		cmp	r2, r3
 461 028a 03D9     		bls	.L35
 221:../Application/Module/Flash/Flash.c **** 	{
 222:../Application/Module/Flash/Flash.c **** 	 sector = FLASH_Sector_8;
 462              		.loc 1 222 0 is_stmt 1
 463 028c 4FF04003 		mov	r3, #64
 464 0290 FB60     		str	r3, [r7, #12]
 465 0292 1AE0     		b	.L27
 466              	.L35:
 223:../Application/Module/Flash/Flash.c **** 	}
 224:../Application/Module/Flash/Flash.c **** 	else if((Address < ADDR_FLASH_SECTOR_10) && (Address >= ADDR_FLASH_SECTOR_9))
 467              		.loc 1 224 0
 468 0294 7A68     		ldr	r2, [r7, #4]
 469 0296 194B     		ldr	r3, .L39+36
 470 0298 9A42     		cmp	r2, r3
 471 029a 07D8     		bhi	.L36
 472              		.loc 1 224 0 is_stmt 0 discriminator 1
 473 029c 7A68     		ldr	r2, [r7, #4]
 474 029e 164B     		ldr	r3, .L39+32
 475 02a0 9A42     		cmp	r2, r3
 476 02a2 03D9     		bls	.L36
 225:../Application/Module/Flash/Flash.c **** 	{
 226:../Application/Module/Flash/Flash.c **** 	 sector = FLASH_Sector_9;
 477              		.loc 1 226 0 is_stmt 1
 478 02a4 4FF04803 		mov	r3, #72
 479 02a8 FB60     		str	r3, [r7, #12]
 480 02aa 0EE0     		b	.L27
 481              	.L36:
 227:../Application/Module/Flash/Flash.c **** 	}
 228:../Application/Module/Flash/Flash.c **** 	else if((Address < ADDR_FLASH_SECTOR_11) && (Address >= ADDR_FLASH_SECTOR_10))
 482              		.loc 1 228 0
 483 02ac 7A68     		ldr	r2, [r7, #4]
 484 02ae 144B     		ldr	r3, .L39+40
 485 02b0 9A42     		cmp	r2, r3
 486 02b2 07D8     		bhi	.L37
 487              		.loc 1 228 0 is_stmt 0 discriminator 1
 488 02b4 7A68     		ldr	r2, [r7, #4]
 489 02b6 114B     		ldr	r3, .L39+36
 490 02b8 9A42     		cmp	r2, r3
 491 02ba 03D9     		bls	.L37
 229:../Application/Module/Flash/Flash.c **** 	{
 230:../Application/Module/Flash/Flash.c **** 	 sector = FLASH_Sector_10;
 492              		.loc 1 230 0 is_stmt 1
 493 02bc 4FF05003 		mov	r3, #80
 494 02c0 FB60     		str	r3, [r7, #12]
 495 02c2 02E0     		b	.L27
 496              	.L37:
 231:../Application/Module/Flash/Flash.c **** 	}
 232:../Application/Module/Flash/Flash.c **** 	else
 233:../Application/Module/Flash/Flash.c **** 	{
 234:../Application/Module/Flash/Flash.c **** 	 sector = FLASH_Sector_11;
 497              		.loc 1 234 0
 498 02c4 4FF05803 		mov	r3, #88
 499 02c8 FB60     		str	r3, [r7, #12]
 500              	.L27:
 235:../Application/Module/Flash/Flash.c **** 	}
 236:../Application/Module/Flash/Flash.c **** 	return sector;
 501              		.loc 1 236 0
 502 02ca FB68     		ldr	r3, [r7, #12]
 237:../Application/Module/Flash/Flash.c **** }
 503              		.loc 1 237 0
 504 02cc 1846     		mov	r0, r3
 505 02ce 07F11407 		add	r7, r7, #20
 506 02d2 BD46     		mov	sp, r7
 507 02d4 80BC     		pop	{r7}
 508 02d6 7047     		bx	lr
 509              	.L40:
 510              		.align	2
 511              	.L39:
 512 02d8 FF3F0008 		.word	134234111
 513 02dc FF7F0008 		.word	134250495
 514 02e0 FFBF0008 		.word	134266879
 515 02e4 FFFF0008 		.word	134283263
 516 02e8 FFFF0108 		.word	134348799
 517 02ec FFFF0308 		.word	134479871
 518 02f0 FFFF0508 		.word	134610943
 519 02f4 FFFF0708 		.word	134742015
 520 02f8 FFFF0908 		.word	134873087
 521 02fc FFFF0B08 		.word	135004159
 522 0300 FFFF0D08 		.word	135135231
 523              		.cfi_endproc
 524              	.LFE112:
 526              		.align	2
 527              		.global	GetSectorStamp2
 528              		.thumb
 529              		.thumb_func
 531              	GetSectorStamp2:
 532              	.LFB113:
 238:../Application/Module/Flash/Flash.c **** 
 239:../Application/Module/Flash/Flash.c **** void GetSectorStamp2(FlashStampStruct* returnStruct)
 240:../Application/Module/Flash/Flash.c **** {
 533              		.loc 1 240 0
 534              		.cfi_startproc
 535              		@ args = 0, pretend = 0, frame = 16
 536              		@ frame_needed = 1, uses_anonymous_args = 0
 537              		@ link register save eliminated.
 538 0304 80B4     		push	{r7}
 539              	.LCFI9:
 540              		.cfi_def_cfa_offset 4
 541              		.cfi_offset 7, -4
 542 0306 85B0     		sub	sp, sp, #20
 543              	.LCFI10:
 544              		.cfi_def_cfa_offset 24
 545 0308 00AF     		add	r7, sp, #0
 546              	.LCFI11:
 547              		.cfi_def_cfa_register 7
 548 030a 7860     		str	r0, [r7, #4]
 241:../Application/Module/Flash/Flash.c **** 	uint8_t i = 0;
 549              		.loc 1 241 0
 550 030c 4FF00003 		mov	r3, #0
 551 0310 FB73     		strb	r3, [r7, #15]
 242:../Application/Module/Flash/Flash.c **** 	uint32_t uwAddress = ADDR_FLASH_SELECTOR;
 552              		.loc 1 242 0
 553 0312 364B     		ldr	r3, .L46
 554 0314 BB60     		str	r3, [r7, #8]
 243:../Application/Module/Flash/Flash.c **** 
 244:../Application/Module/Flash/Flash.c **** 	uwAddress = ((*(__IO uint16_t*)uwAddress) == FlashSectorSelector_End) ? ( ADDR_FLASH_SECTOR_4 + ( 
 555              		.loc 1 244 0
 556 0316 BB68     		ldr	r3, [r7, #8]
 557 0318 1B88     		ldrh	r3, [r3, #0]	@ movhi
 558 031a 9BB2     		uxth	r3, r3
 559 031c 012B     		cmp	r3, #1
 560 031e 01D1     		bne	.L42
 561              		.loc 1 244 0 is_stmt 0 discriminator 1
 562 0320 334B     		ldr	r3, .L46+4
 563 0322 00E0     		b	.L43
 564              	.L42:
 565              		.loc 1 244 0 discriminator 2
 566 0324 334B     		ldr	r3, .L46+8
 567              	.L43:
 568              		.loc 1 244 0 discriminator 3
 569 0326 BB60     		str	r3, [r7, #8]
 245:../Application/Module/Flash/Flash.c **** 
 246:../Application/Module/Flash/Flash.c **** 	for(i = 0; i < 15; i++)
 570              		.loc 1 246 0 is_stmt 1 discriminator 3
 571 0328 4FF00003 		mov	r3, #0
 572 032c FB73     		strb	r3, [r7, #15]
 573 032e 55E0     		b	.L44
 574              	.L45:
 247:../Application/Module/Flash/Flash.c **** 	{
 248:../Application/Module/Flash/Flash.c **** 		returnStruct[i].FlashStampStruct_uwAddress = *(__IO uint32_t*)uwAddress;
 575              		.loc 1 248 0 discriminator 2
 576 0330 FA7B     		ldrb	r2, [r7, #15]	@ zero_extendqisi2
 577 0332 1346     		mov	r3, r2
 578 0334 4FEA8303 		lsl	r3, r3, #2
 579 0338 9B18     		adds	r3, r3, r2
 580 033a 4FEA8303 		lsl	r3, r3, #2
 581 033e 7A68     		ldr	r2, [r7, #4]
 582 0340 D318     		adds	r3, r2, r3
 583 0342 BA68     		ldr	r2, [r7, #8]
 584 0344 1268     		ldr	r2, [r2, #0]
 585 0346 1A60     		str	r2, [r3, #0]
 249:../Application/Module/Flash/Flash.c **** 		uwAddress += 4;
 586              		.loc 1 249 0 discriminator 2
 587 0348 BB68     		ldr	r3, [r7, #8]
 588 034a 03F10403 		add	r3, r3, #4
 589 034e BB60     		str	r3, [r7, #8]
 250:../Application/Module/Flash/Flash.c **** 
 251:../Application/Module/Flash/Flash.c **** 		returnStruct[i].FlashStampStruct_uwSectorCounter = *(__IO uint32_t*)uwAddress;
 590              		.loc 1 251 0 discriminator 2
 591 0350 FA7B     		ldrb	r2, [r7, #15]	@ zero_extendqisi2
 592 0352 1346     		mov	r3, r2
 593 0354 4FEA8303 		lsl	r3, r3, #2
 594 0358 9B18     		adds	r3, r3, r2
 595 035a 4FEA8303 		lsl	r3, r3, #2
 596 035e 7A68     		ldr	r2, [r7, #4]
 597 0360 D318     		adds	r3, r2, r3
 598 0362 BA68     		ldr	r2, [r7, #8]
 599 0364 1268     		ldr	r2, [r2, #0]
 600 0366 5A60     		str	r2, [r3, #4]
 252:../Application/Module/Flash/Flash.c **** 		uwAddress += 4;
 601              		.loc 1 252 0 discriminator 2
 602 0368 BB68     		ldr	r3, [r7, #8]
 603 036a 03F10403 		add	r3, r3, #4
 604 036e BB60     		str	r3, [r7, #8]
 253:../Application/Module/Flash/Flash.c **** 
 254:../Application/Module/Flash/Flash.c **** 		returnStruct[i].FlashStampStruct_uwSelector = *(__IO uint8_t*)uwAddress;
 605              		.loc 1 254 0 discriminator 2
 606 0370 FA7B     		ldrb	r2, [r7, #15]	@ zero_extendqisi2
 607 0372 1346     		mov	r3, r2
 608 0374 4FEA8303 		lsl	r3, r3, #2
 609 0378 9B18     		adds	r3, r3, r2
 610 037a 4FEA8303 		lsl	r3, r3, #2
 611 037e 7A68     		ldr	r2, [r7, #4]
 612 0380 D318     		adds	r3, r2, r3
 613 0382 BA68     		ldr	r2, [r7, #8]
 614 0384 1278     		ldrb	r2, [r2, #0]
 615 0386 D2B2     		uxtb	r2, r2
 616 0388 1A72     		strb	r2, [r3, #8]
 255:../Application/Module/Flash/Flash.c **** 		uwAddress++;
 617              		.loc 1 255 0 discriminator 2
 618 038a BB68     		ldr	r3, [r7, #8]
 619 038c 03F10103 		add	r3, r3, #1
 620 0390 BB60     		str	r3, [r7, #8]
 256:../Application/Module/Flash/Flash.c **** 
 257:../Application/Module/Flash/Flash.c **** 		returnStruct[i].FlashStampStruct_Length = *(__IO uint32_t*)uwAddress;
 621              		.loc 1 257 0 discriminator 2
 622 0392 FA7B     		ldrb	r2, [r7, #15]	@ zero_extendqisi2
 623 0394 1346     		mov	r3, r2
 624 0396 4FEA8303 		lsl	r3, r3, #2
 625 039a 9B18     		adds	r3, r3, r2
 626 039c 4FEA8303 		lsl	r3, r3, #2
 627 03a0 7A68     		ldr	r2, [r7, #4]
 628 03a2 D318     		adds	r3, r2, r3
 629 03a4 BA68     		ldr	r2, [r7, #8]
 630 03a6 1268     		ldr	r2, [r2, #0]
 631 03a8 DA60     		str	r2, [r3, #12]
 258:../Application/Module/Flash/Flash.c **** 		uwAddress += 4;
 632              		.loc 1 258 0 discriminator 2
 633 03aa BB68     		ldr	r3, [r7, #8]
 634 03ac 03F10403 		add	r3, r3, #4
 635 03b0 BB60     		str	r3, [r7, #8]
 259:../Application/Module/Flash/Flash.c **** 
 260:../Application/Module/Flash/Flash.c **** 		returnStruct[i].FlashStampStruct_StateMState = *(__IO uint8_t*)uwAddress;
 636              		.loc 1 260 0 discriminator 2
 637 03b2 FA7B     		ldrb	r2, [r7, #15]	@ zero_extendqisi2
 638 03b4 1346     		mov	r3, r2
 639 03b6 4FEA8303 		lsl	r3, r3, #2
 640 03ba 9B18     		adds	r3, r3, r2
 641 03bc 4FEA8303 		lsl	r3, r3, #2
 642 03c0 7A68     		ldr	r2, [r7, #4]
 643 03c2 D318     		adds	r3, r2, r3
 644 03c4 BA68     		ldr	r2, [r7, #8]
 645 03c6 1278     		ldrb	r2, [r2, #0]
 646 03c8 D2B2     		uxtb	r2, r2
 647 03ca 1A74     		strb	r2, [r3, #16]
 261:../Application/Module/Flash/Flash.c **** 		uwAddress++;
 648              		.loc 1 261 0 discriminator 2
 649 03cc BB68     		ldr	r3, [r7, #8]
 650 03ce 03F10103 		add	r3, r3, #1
 651 03d2 BB60     		str	r3, [r7, #8]
 246:../Application/Module/Flash/Flash.c **** 	for(i = 0; i < 15; i++)
 652              		.loc 1 246 0 discriminator 2
 653 03d4 FB7B     		ldrb	r3, [r7, #15]
 654 03d6 03F10103 		add	r3, r3, #1
 655 03da FB73     		strb	r3, [r7, #15]
 656              	.L44:
 246:../Application/Module/Flash/Flash.c **** 	for(i = 0; i < 15; i++)
 657              		.loc 1 246 0 is_stmt 0 discriminator 1
 658 03dc FB7B     		ldrb	r3, [r7, #15]	@ zero_extendqisi2
 659 03de 0E2B     		cmp	r3, #14
 660 03e0 A6D9     		bls	.L45
 262:../Application/Module/Flash/Flash.c **** 	}
 263:../Application/Module/Flash/Flash.c **** }
 661              		.loc 1 263 0 is_stmt 1
 662 03e2 07F11407 		add	r7, r7, #20
 663 03e6 BD46     		mov	sp, r7
 664 03e8 80BC     		pop	{r7}
 665 03ea 7047     		bx	lr
 666              	.L47:
 667              		.align	2
 668              	.L46:
 669 03ec FFFF0108 		.word	134348799
 670 03f0 2C010108 		.word	134283564
 671 03f4 00000108 		.word	134283264
 672              		.cfi_endproc
 673              	.LFE113:
 675              		.align	2
 676              		.global	GetSectorStamp
 677              		.thumb
 678              		.thumb_func
 680              	GetSectorStamp:
 681              	.LFB114:
 264:../Application/Module/Flash/Flash.c **** 
 265:../Application/Module/Flash/Flash.c **** 
 266:../Application/Module/Flash/Flash.c **** void GetSectorStamp(FlashStampStruct* returnStruct)
 267:../Application/Module/Flash/Flash.c **** {
 682              		.loc 1 267 0
 683              		.cfi_startproc
 684              		@ args = 0, pretend = 0, frame = 312
 685              		@ frame_needed = 1, uses_anonymous_args = 0
 686 03f8 80B5     		push	{r7, lr}
 687              	.LCFI12:
 688              		.cfi_def_cfa_offset 8
 689              		.cfi_offset 7, -8
 690              		.cfi_offset 14, -4
 691 03fa CEB0     		sub	sp, sp, #312
 692              	.LCFI13:
 693              		.cfi_def_cfa_offset 320
 694 03fc 00AF     		add	r7, sp, #0
 695              	.LCFI14:
 696              		.cfi_def_cfa_register 7
 697 03fe 07F10403 		add	r3, r7, #4
 698 0402 1860     		str	r0, [r3, #0]
 268:../Application/Module/Flash/Flash.c **** 	FlashStampStruct getStruct[15];
 269:../Application/Module/Flash/Flash.c **** 	uint8_t i = 0;
 699              		.loc 1 269 0
 700 0404 4FF00003 		mov	r3, #0
 701 0408 87F83731 		strb	r3, [r7, #311]
 270:../Application/Module/Flash/Flash.c **** 
 271:../Application/Module/Flash/Flash.c **** 	GetSectorStamp2(&getStruct[0]);
 702              		.loc 1 271 0
 703 040c 07F10803 		add	r3, r7, #8
 704 0410 1846     		mov	r0, r3
 705 0412 FFF7FEFF 		bl	GetSectorStamp2
 272:../Application/Module/Flash/Flash.c **** 
 273:../Application/Module/Flash/Flash.c **** 	for(i = 0; i < 15; i++)
 706              		.loc 1 273 0
 707 0416 4FF00003 		mov	r3, #0
 708 041a 87F83731 		strb	r3, [r7, #311]
 709 041e D3E0     		b	.L49
 710              	.L52:
 274:../Application/Module/Flash/Flash.c **** 	{
 275:../Application/Module/Flash/Flash.c **** 		if(getStruct[i].FlashStampStruct_StateMState == 0xFF )
 711              		.loc 1 275 0
 712 0420 97F83721 		ldrb	r2, [r7, #311]	@ zero_extendqisi2
 713 0424 07F10801 		add	r1, r7, #8
 714 0428 1346     		mov	r3, r2
 715 042a 4FEA8303 		lsl	r3, r3, #2
 716 042e 9B18     		adds	r3, r3, r2
 717 0430 4FEA8303 		lsl	r3, r3, #2
 718 0434 CB18     		adds	r3, r1, r3
 719 0436 03F11003 		add	r3, r3, #16
 720 043a 1B78     		ldrb	r3, [r3, #0]	@ zero_extendqisi2
 721 043c FF2B     		cmp	r3, #255
 722 043e 40F0BD80 		bne	.L50
 276:../Application/Module/Flash/Flash.c **** 		{
 277:../Application/Module/Flash/Flash.c **** 			returnStruct[SectorStampSelector_Current].FlashStampStruct_Length = getStruct[i].FlashStampStruc
 723              		.loc 1 277 0
 724 0442 07F10403 		add	r3, r7, #4
 725 0446 1B68     		ldr	r3, [r3, #0]
 726 0448 03F11401 		add	r1, r3, #20
 727 044c 97F83721 		ldrb	r2, [r7, #311]	@ zero_extendqisi2
 728 0450 07F10800 		add	r0, r7, #8
 729 0454 1346     		mov	r3, r2
 730 0456 4FEA8303 		lsl	r3, r3, #2
 731 045a 9B18     		adds	r3, r3, r2
 732 045c 4FEA8303 		lsl	r3, r3, #2
 733 0460 C318     		adds	r3, r0, r3
 734 0462 03F10803 		add	r3, r3, #8
 735 0466 5B68     		ldr	r3, [r3, #4]
 736 0468 CB60     		str	r3, [r1, #12]
 278:../Application/Module/Flash/Flash.c **** 			returnStruct[SectorStampSelector_Current].FlashStampStruct_uwAddress = getStruct[i].FlashStampSt
 737              		.loc 1 278 0
 738 046a 07F10403 		add	r3, r7, #4
 739 046e 1B68     		ldr	r3, [r3, #0]
 740 0470 03F11401 		add	r1, r3, #20
 741 0474 97F83721 		ldrb	r2, [r7, #311]	@ zero_extendqisi2
 742 0478 07F10800 		add	r0, r7, #8
 743 047c 1346     		mov	r3, r2
 744 047e 4FEA8303 		lsl	r3, r3, #2
 745 0482 9B18     		adds	r3, r3, r2
 746 0484 4FEA8303 		lsl	r3, r3, #2
 747 0488 C318     		adds	r3, r0, r3
 748 048a 1B68     		ldr	r3, [r3, #0]
 749 048c 0B60     		str	r3, [r1, #0]
 279:../Application/Module/Flash/Flash.c **** 			returnStruct[SectorStampSelector_Current].FlashStampStruct_uwSectorCounter = getStruct[i].FlashS
 750              		.loc 1 279 0
 751 048e 07F10403 		add	r3, r7, #4
 752 0492 1B68     		ldr	r3, [r3, #0]
 753 0494 03F11401 		add	r1, r3, #20
 754 0498 97F83721 		ldrb	r2, [r7, #311]	@ zero_extendqisi2
 755 049c 07F10800 		add	r0, r7, #8
 756 04a0 1346     		mov	r3, r2
 757 04a2 4FEA8303 		lsl	r3, r3, #2
 758 04a6 9B18     		adds	r3, r3, r2
 759 04a8 4FEA8303 		lsl	r3, r3, #2
 760 04ac C318     		adds	r3, r0, r3
 761 04ae 5B68     		ldr	r3, [r3, #4]
 762 04b0 4B60     		str	r3, [r1, #4]
 280:../Application/Module/Flash/Flash.c **** 			returnStruct[SectorStampSelector_Current].FlashStampStruct_uwSelector = getStruct[i].FlashStampS
 763              		.loc 1 280 0
 764 04b2 07F10403 		add	r3, r7, #4
 765 04b6 1B68     		ldr	r3, [r3, #0]
 766 04b8 03F11401 		add	r1, r3, #20
 767 04bc 97F83721 		ldrb	r2, [r7, #311]	@ zero_extendqisi2
 768 04c0 07F10800 		add	r0, r7, #8
 769 04c4 1346     		mov	r3, r2
 770 04c6 4FEA8303 		lsl	r3, r3, #2
 771 04ca 9B18     		adds	r3, r3, r2
 772 04cc 4FEA8303 		lsl	r3, r3, #2
 773 04d0 C318     		adds	r3, r0, r3
 774 04d2 03F10803 		add	r3, r3, #8
 775 04d6 1B78     		ldrb	r3, [r3, #0]	@ zero_extendqisi2
 776 04d8 0B72     		strb	r3, [r1, #8]
 281:../Application/Module/Flash/Flash.c **** 			returnStruct[SectorStampSelector_Current].FlashStampStruct_StateMState = getStruct[i].FlashStamp
 777              		.loc 1 281 0
 778 04da 07F10403 		add	r3, r7, #4
 779 04de 1B68     		ldr	r3, [r3, #0]
 780 04e0 03F11401 		add	r1, r3, #20
 781 04e4 97F83721 		ldrb	r2, [r7, #311]	@ zero_extendqisi2
 782 04e8 07F10800 		add	r0, r7, #8
 783 04ec 1346     		mov	r3, r2
 784 04ee 4FEA8303 		lsl	r3, r3, #2
 785 04f2 9B18     		adds	r3, r3, r2
 786 04f4 4FEA8303 		lsl	r3, r3, #2
 787 04f8 C318     		adds	r3, r0, r3
 788 04fa 03F11003 		add	r3, r3, #16
 789 04fe 1B78     		ldrb	r3, [r3, #0]	@ zero_extendqisi2
 790 0500 0B74     		strb	r3, [r1, #16]
 282:../Application/Module/Flash/Flash.c **** 
 283:../Application/Module/Flash/Flash.c **** 			--i;
 791              		.loc 1 283 0
 792 0502 97F83731 		ldrb	r3, [r7, #311]
 793 0506 03F1FF33 		add	r3, r3, #-1
 794 050a 87F83731 		strb	r3, [r7, #311]
 284:../Application/Module/Flash/Flash.c **** 
 285:../Application/Module/Flash/Flash.c **** 			returnStruct[SectorStampSelector_Prev].FlashStampStruct_Length = getStruct[i].FlashStampStruct_L
 795              		.loc 1 285 0
 796 050e 97F83721 		ldrb	r2, [r7, #311]	@ zero_extendqisi2
 797 0512 07F10801 		add	r1, r7, #8
 798 0516 1346     		mov	r3, r2
 799 0518 4FEA8303 		lsl	r3, r3, #2
 800 051c 9B18     		adds	r3, r3, r2
 801 051e 4FEA8303 		lsl	r3, r3, #2
 802 0522 CB18     		adds	r3, r1, r3
 803 0524 03F10803 		add	r3, r3, #8
 804 0528 5A68     		ldr	r2, [r3, #4]
 805 052a 07F10403 		add	r3, r7, #4
 806 052e 1B68     		ldr	r3, [r3, #0]
 807 0530 DA60     		str	r2, [r3, #12]
 286:../Application/Module/Flash/Flash.c **** 			returnStruct[SectorStampSelector_Prev].FlashStampStruct_uwAddress = getStruct[i].FlashStampStruc
 808              		.loc 1 286 0
 809 0532 97F83721 		ldrb	r2, [r7, #311]	@ zero_extendqisi2
 810 0536 07F10801 		add	r1, r7, #8
 811 053a 1346     		mov	r3, r2
 812 053c 4FEA8303 		lsl	r3, r3, #2
 813 0540 9B18     		adds	r3, r3, r2
 814 0542 4FEA8303 		lsl	r3, r3, #2
 815 0546 CB18     		adds	r3, r1, r3
 816 0548 1A68     		ldr	r2, [r3, #0]
 817 054a 07F10403 		add	r3, r7, #4
 818 054e 1B68     		ldr	r3, [r3, #0]
 819 0550 1A60     		str	r2, [r3, #0]
 287:../Application/Module/Flash/Flash.c **** 			returnStruct[SectorStampSelector_Prev].FlashStampStruct_uwSectorCounter = getStruct[i].FlashStam
 820              		.loc 1 287 0
 821 0552 97F83721 		ldrb	r2, [r7, #311]	@ zero_extendqisi2
 822 0556 07F10801 		add	r1, r7, #8
 823 055a 1346     		mov	r3, r2
 824 055c 4FEA8303 		lsl	r3, r3, #2
 825 0560 9B18     		adds	r3, r3, r2
 826 0562 4FEA8303 		lsl	r3, r3, #2
 827 0566 CB18     		adds	r3, r1, r3
 828 0568 5A68     		ldr	r2, [r3, #4]
 829 056a 07F10403 		add	r3, r7, #4
 830 056e 1B68     		ldr	r3, [r3, #0]
 831 0570 5A60     		str	r2, [r3, #4]
 288:../Application/Module/Flash/Flash.c **** 			returnStruct[SectorStampSelector_Prev].FlashStampStruct_uwSelector = getStruct[i].FlashStampStru
 832              		.loc 1 288 0
 833 0572 97F83721 		ldrb	r2, [r7, #311]	@ zero_extendqisi2
 834 0576 07F10801 		add	r1, r7, #8
 835 057a 1346     		mov	r3, r2
 836 057c 4FEA8303 		lsl	r3, r3, #2
 837 0580 9B18     		adds	r3, r3, r2
 838 0582 4FEA8303 		lsl	r3, r3, #2
 839 0586 CB18     		adds	r3, r1, r3
 840 0588 03F10803 		add	r3, r3, #8
 841 058c 1A78     		ldrb	r2, [r3, #0]	@ zero_extendqisi2
 842 058e 07F10403 		add	r3, r7, #4
 843 0592 1B68     		ldr	r3, [r3, #0]
 844 0594 1A72     		strb	r2, [r3, #8]
 289:../Application/Module/Flash/Flash.c **** 			returnStruct[SectorStampSelector_Prev].FlashStampStruct_StateMState = getStruct[i].FlashStampStr
 845              		.loc 1 289 0
 846 0596 97F83721 		ldrb	r2, [r7, #311]	@ zero_extendqisi2
 847 059a 07F10801 		add	r1, r7, #8
 848 059e 1346     		mov	r3, r2
 849 05a0 4FEA8303 		lsl	r3, r3, #2
 850 05a4 9B18     		adds	r3, r3, r2
 851 05a6 4FEA8303 		lsl	r3, r3, #2
 852 05aa CB18     		adds	r3, r1, r3
 853 05ac 03F11003 		add	r3, r3, #16
 854 05b0 1A78     		ldrb	r2, [r3, #0]	@ zero_extendqisi2
 855 05b2 07F10403 		add	r3, r7, #4
 856 05b6 1B68     		ldr	r3, [r3, #0]
 857 05b8 1A74     		strb	r2, [r3, #16]
 290:../Application/Module/Flash/Flash.c **** 
 291:../Application/Module/Flash/Flash.c **** 			break;
 858              		.loc 1 291 0
 859 05ba 0AE0     		b	.L48
 860              	.L50:
 273:../Application/Module/Flash/Flash.c **** 	for(i = 0; i < 15; i++)
 861              		.loc 1 273 0
 862 05bc 97F83731 		ldrb	r3, [r7, #311]
 863 05c0 03F10103 		add	r3, r3, #1
 864 05c4 87F83731 		strb	r3, [r7, #311]
 865              	.L49:
 273:../Application/Module/Flash/Flash.c **** 	for(i = 0; i < 15; i++)
 866              		.loc 1 273 0 is_stmt 0 discriminator 1
 867 05c8 97F83731 		ldrb	r3, [r7, #311]	@ zero_extendqisi2
 868 05cc 0E2B     		cmp	r3, #14
 869 05ce 7FF627AF 		bls	.L52
 870              	.L48:
 292:../Application/Module/Flash/Flash.c **** 		}
 293:../Application/Module/Flash/Flash.c **** 	}
 294:../Application/Module/Flash/Flash.c **** }
 871              		.loc 1 294 0 is_stmt 1
 872 05d2 07F59C77 		add	r7, r7, #312
 873 05d6 BD46     		mov	sp, r7
 874 05d8 80BD     		pop	{r7, pc}
 875              		.cfi_endproc
 876              	.LFE114:
 878 05da 00BF     		.align	2
 879              		.global	SetSectorStamp
 880              		.thumb
 881              		.thumb_func
 883              	SetSectorStamp:
 884              	.LFB115:
 295:../Application/Module/Flash/Flash.c **** 
 296:../Application/Module/Flash/Flash.c **** /*
 297:../Application/Module/Flash/Flash.c ****  * Csak elzleg trlt szektoron alkalmazhat
 298:../Application/Module/Flash/Flash.c ****  * Szksges a Flash memria Unlock-olsa
 299:../Application/Module/Flash/Flash.c ****  * */
 300:../Application/Module/Flash/Flash.c **** FlashBool_Type SetSectorStamp(FlashStampStruct* dataStruct)
 301:../Application/Module/Flash/Flash.c **** {
 885              		.loc 1 301 0
 886              		.cfi_startproc
 887              		@ args = 0, pretend = 0, frame = 360
 888              		@ frame_needed = 1, uses_anonymous_args = 0
 889 05dc 80B5     		push	{r7, lr}
 890              	.LCFI15:
 891              		.cfi_def_cfa_offset 8
 892              		.cfi_offset 7, -8
 893              		.cfi_offset 14, -4
 894 05de DAB0     		sub	sp, sp, #360
 895              	.LCFI16:
 896              		.cfi_def_cfa_offset 368
 897 05e0 00AF     		add	r7, sp, #0
 898              	.LCFI17:
 899              		.cfi_def_cfa_register 7
 900 05e2 07F10403 		add	r3, r7, #4
 901 05e6 1860     		str	r0, [r3, #0]
 302:../Application/Module/Flash/Flash.c **** 	//uint32_t uwAddress = ADDR_FLASH_SECTOR_4;
 303:../Application/Module/Flash/Flash.c **** 	FlashStampStruct returnStruct[2];
 304:../Application/Module/Flash/Flash.c **** 	FlashStampStruct returnStruct2[15];
 305:../Application/Module/Flash/Flash.c **** 	uint8_t i = 0;
 902              		.loc 1 305 0
 903 05e8 4FF00003 		mov	r3, #0
 904 05ec 87F86731 		strb	r3, [r7, #359]
 306:../Application/Module/Flash/Flash.c **** 	uint32_t uwAddress = ADDR_FLASH_SELECTOR;
 905              		.loc 1 306 0
 906 05f0 5C4B     		ldr	r3, .L71
 907 05f2 C7F86031 		str	r3, [r7, #352]
 307:../Application/Module/Flash/Flash.c **** 
 308:../Application/Module/Flash/Flash.c **** 	uwAddress = ((*(__IO uint16_t*)uwAddress) == FlashSectorSelector_End) ? ( ADDR_FLASH_SECTOR_4 + ( 
 908              		.loc 1 308 0
 909 05f6 D7F86031 		ldr	r3, [r7, #352]
 910 05fa 1B88     		ldrh	r3, [r3, #0]	@ movhi
 911 05fc 9BB2     		uxth	r3, r3
 912 05fe 012B     		cmp	r3, #1
 913 0600 01D1     		bne	.L54
 914              		.loc 1 308 0 is_stmt 0 discriminator 1
 915 0602 594B     		ldr	r3, .L71+4
 916 0604 00E0     		b	.L55
 917              	.L54:
 918              		.loc 1 308 0 discriminator 2
 919 0606 594B     		ldr	r3, .L71+8
 920              	.L55:
 921              		.loc 1 308 0 discriminator 3
 922 0608 C7F86031 		str	r3, [r7, #352]
 309:../Application/Module/Flash/Flash.c **** 
 310:../Application/Module/Flash/Flash.c **** 
 311:../Application/Module/Flash/Flash.c **** 	GetSectorStamp2(&returnStruct2[0]);
 923              		.loc 1 311 0 is_stmt 1 discriminator 3
 924 060c 07F10C03 		add	r3, r7, #12
 925 0610 1846     		mov	r0, r3
 926 0612 FFF7FEFF 		bl	GetSectorStamp2
 312:../Application/Module/Flash/Flash.c **** 
 313:../Application/Module/Flash/Flash.c **** 	for(i = 0; i < 15; ++i)
 927              		.loc 1 313 0 discriminator 3
 928 0616 4FF00003 		mov	r3, #0
 929 061a 87F86731 		strb	r3, [r7, #359]
 930 061e 8FE0     		b	.L56
 931              	.L69:
 314:../Application/Module/Flash/Flash.c **** 	{
 315:../Application/Module/Flash/Flash.c **** 		if(returnStruct2[i].FlashStampStruct_StateMState == 0xFF)
 932              		.loc 1 315 0
 933 0620 97F86721 		ldrb	r2, [r7, #359]	@ zero_extendqisi2
 934 0624 07F10C01 		add	r1, r7, #12
 935 0628 1346     		mov	r3, r2
 936 062a 4FEA8303 		lsl	r3, r3, #2
 937 062e 9B18     		adds	r3, r3, r2
 938 0630 4FEA8303 		lsl	r3, r3, #2
 939 0634 CB18     		adds	r3, r1, r3
 940 0636 03F11003 		add	r3, r3, #16
 941 063a 1B78     		ldrb	r3, [r3, #0]	@ zero_extendqisi2
 942 063c FF2B     		cmp	r3, #255
 943 063e 73D1     		bne	.L57
 316:../Application/Module/Flash/Flash.c **** 		{
 317:../Application/Module/Flash/Flash.c **** 			uwAddress += 9;
 944              		.loc 1 317 0
 945 0640 D7F86031 		ldr	r3, [r7, #352]
 946 0644 03F10903 		add	r3, r3, #9
 947 0648 C7F86031 		str	r3, [r7, #352]
 318:../Application/Module/Flash/Flash.c **** 
 319:../Application/Module/Flash/Flash.c **** 			if (FLASH_ProgramByte(uwAddress, (((dataStruct->FlashStampStruct_Length) & 0xFF))) != FLASH_COMP
 948              		.loc 1 319 0
 949 064c 07F10403 		add	r3, r7, #4
 950 0650 1B68     		ldr	r3, [r3, #0]
 951 0652 DB68     		ldr	r3, [r3, #12]
 952 0654 DBB2     		uxtb	r3, r3
 953 0656 D7F86001 		ldr	r0, [r7, #352]
 954 065a 1946     		mov	r1, r3
 955 065c FFF7FEFF 		bl	FLASH_ProgramByte
 956 0660 0346     		mov	r3, r0
 957 0662 082B     		cmp	r3, #8
 958 0664 00D0     		beq	.L58
 959              	.L59:
 320:../Application/Module/Flash/Flash.c **** 			{
 321:../Application/Module/Flash/Flash.c **** 				while (1)
 322:../Application/Module/Flash/Flash.c **** 				{
 323:../Application/Module/Flash/Flash.c **** 				}
 960              		.loc 1 323 0 discriminator 1
 961 0666 FEE7     		b	.L59
 962              	.L58:
 324:../Application/Module/Flash/Flash.c **** 			}
 325:../Application/Module/Flash/Flash.c **** 			uwAddress++;
 963              		.loc 1 325 0
 964 0668 D7F86031 		ldr	r3, [r7, #352]
 965 066c 03F10103 		add	r3, r3, #1
 966 0670 C7F86031 		str	r3, [r7, #352]
 326:../Application/Module/Flash/Flash.c **** 
 327:../Application/Module/Flash/Flash.c **** 			if (FLASH_ProgramByte(uwAddress, (((dataStruct->FlashStampStruct_Length) & 0xFF00) >> 8)) != FLA
 967              		.loc 1 327 0
 968 0674 07F10403 		add	r3, r7, #4
 969 0678 1B68     		ldr	r3, [r3, #0]
 970 067a DB68     		ldr	r3, [r3, #12]
 971 067c 03F47F43 		and	r3, r3, #65280
 972 0680 4FEA1323 		lsr	r3, r3, #8
 973 0684 DBB2     		uxtb	r3, r3
 974 0686 D7F86001 		ldr	r0, [r7, #352]
 975 068a 1946     		mov	r1, r3
 976 068c FFF7FEFF 		bl	FLASH_ProgramByte
 977 0690 0346     		mov	r3, r0
 978 0692 082B     		cmp	r3, #8
 979 0694 00D0     		beq	.L60
 980              	.L61:
 328:../Application/Module/Flash/Flash.c **** 			{
 329:../Application/Module/Flash/Flash.c **** 				while (1)
 330:../Application/Module/Flash/Flash.c **** 				{
 331:../Application/Module/Flash/Flash.c **** 				}
 981              		.loc 1 331 0 discriminator 1
 982 0696 FEE7     		b	.L61
 983              	.L60:
 332:../Application/Module/Flash/Flash.c **** 			}
 333:../Application/Module/Flash/Flash.c **** 			uwAddress++;
 984              		.loc 1 333 0
 985 0698 D7F86031 		ldr	r3, [r7, #352]
 986 069c 03F10103 		add	r3, r3, #1
 987 06a0 C7F86031 		str	r3, [r7, #352]
 334:../Application/Module/Flash/Flash.c **** 
 335:../Application/Module/Flash/Flash.c **** 			if (FLASH_ProgramByte(uwAddress, (((dataStruct->FlashStampStruct_Length) & 0xFF0000) >> 16)) != 
 988              		.loc 1 335 0
 989 06a4 07F10403 		add	r3, r7, #4
 990 06a8 1B68     		ldr	r3, [r3, #0]
 991 06aa DB68     		ldr	r3, [r3, #12]
 992 06ac 03F47F03 		and	r3, r3, #16711680
 993 06b0 4FEA1343 		lsr	r3, r3, #16
 994 06b4 DBB2     		uxtb	r3, r3
 995 06b6 D7F86001 		ldr	r0, [r7, #352]
 996 06ba 1946     		mov	r1, r3
 997 06bc FFF7FEFF 		bl	FLASH_ProgramByte
 998 06c0 0346     		mov	r3, r0
 999 06c2 082B     		cmp	r3, #8
 1000 06c4 00D0     		beq	.L62
 1001              	.L63:
 336:../Application/Module/Flash/Flash.c **** 			{
 337:../Application/Module/Flash/Flash.c **** 				while (1)
 338:../Application/Module/Flash/Flash.c **** 				{
 339:../Application/Module/Flash/Flash.c **** 				}
 1002              		.loc 1 339 0 discriminator 1
 1003 06c6 FEE7     		b	.L63
 1004              	.L62:
 340:../Application/Module/Flash/Flash.c **** 			}
 341:../Application/Module/Flash/Flash.c **** 			uwAddress++;
 1005              		.loc 1 341 0
 1006 06c8 D7F86031 		ldr	r3, [r7, #352]
 1007 06cc 03F10103 		add	r3, r3, #1
 1008 06d0 C7F86031 		str	r3, [r7, #352]
 342:../Application/Module/Flash/Flash.c **** 
 343:../Application/Module/Flash/Flash.c **** 			if (FLASH_ProgramByte(uwAddress, (((dataStruct->FlashStampStruct_Length) & 0xFF000000) >> 24)) !
 1009              		.loc 1 343 0
 1010 06d4 07F10403 		add	r3, r7, #4
 1011 06d8 1B68     		ldr	r3, [r3, #0]
 1012 06da DB68     		ldr	r3, [r3, #12]
 1013 06dc 4FEA1363 		lsr	r3, r3, #24
 1014 06e0 DBB2     		uxtb	r3, r3
 1015 06e2 D7F86001 		ldr	r0, [r7, #352]
 1016 06e6 1946     		mov	r1, r3
 1017 06e8 FFF7FEFF 		bl	FLASH_ProgramByte
 1018 06ec 0346     		mov	r3, r0
 1019 06ee 082B     		cmp	r3, #8
 1020 06f0 00D0     		beq	.L64
 1021              	.L65:
 344:../Application/Module/Flash/Flash.c **** 			{
 345:../Application/Module/Flash/Flash.c **** 				while (1)
 346:../Application/Module/Flash/Flash.c **** 				{
 347:../Application/Module/Flash/Flash.c **** 				}
 1022              		.loc 1 347 0 discriminator 1
 1023 06f2 FEE7     		b	.L65
 1024              	.L64:
 348:../Application/Module/Flash/Flash.c **** 			}
 349:../Application/Module/Flash/Flash.c **** 			uwAddress++;
 1025              		.loc 1 349 0
 1026 06f4 D7F86031 		ldr	r3, [r7, #352]
 1027 06f8 03F10103 		add	r3, r3, #1
 1028 06fc C7F86031 		str	r3, [r7, #352]
 350:../Application/Module/Flash/Flash.c **** 
 351:../Application/Module/Flash/Flash.c **** 			if (FLASH_ProgramByte(uwAddress, ((dataStruct->FlashStampStruct_StateMState))) != FLASH_COMPLETE
 1029              		.loc 1 351 0
 1030 0700 07F10403 		add	r3, r7, #4
 1031 0704 1B68     		ldr	r3, [r3, #0]
 1032 0706 1B7C     		ldrb	r3, [r3, #16]	@ zero_extendqisi2
 1033 0708 D7F86001 		ldr	r0, [r7, #352]
 1034 070c 1946     		mov	r1, r3
 1035 070e FFF7FEFF 		bl	FLASH_ProgramByte
 1036 0712 0346     		mov	r3, r0
 1037 0714 082B     		cmp	r3, #8
 1038 0716 00D0     		beq	.L66
 1039              	.L67:
 352:../Application/Module/Flash/Flash.c **** 			{
 353:../Application/Module/Flash/Flash.c **** 				while (1)
 354:../Application/Module/Flash/Flash.c **** 				{
 355:../Application/Module/Flash/Flash.c **** 				}
 1040              		.loc 1 355 0 discriminator 1
 1041 0718 FEE7     		b	.L67
 1042              	.L66:
 356:../Application/Module/Flash/Flash.c **** 			}
 357:../Application/Module/Flash/Flash.c **** 			uwAddress++;
 1043              		.loc 1 357 0
 1044 071a D7F86031 		ldr	r3, [r7, #352]
 1045 071e 03F10103 		add	r3, r3, #1
 1046 0722 C7F86031 		str	r3, [r7, #352]
 358:../Application/Module/Flash/Flash.c **** 
 359:../Application/Module/Flash/Flash.c **** 			break;
 1047              		.loc 1 359 0
 1048 0726 10E0     		b	.L68
 1049              	.L57:
 360:../Application/Module/Flash/Flash.c **** 		}
 361:../Application/Module/Flash/Flash.c **** 
 362:../Application/Module/Flash/Flash.c **** 		else
 363:../Application/Module/Flash/Flash.c **** 		{
 364:../Application/Module/Flash/Flash.c **** 			uwAddress += 14;
 1050              		.loc 1 364 0
 1051 0728 D7F86031 		ldr	r3, [r7, #352]
 1052 072c 03F10E03 		add	r3, r3, #14
 1053 0730 C7F86031 		str	r3, [r7, #352]
 313:../Application/Module/Flash/Flash.c **** 	for(i = 0; i < 15; ++i)
 1054              		.loc 1 313 0
 1055 0734 97F86731 		ldrb	r3, [r7, #359]
 1056 0738 03F10103 		add	r3, r3, #1
 1057 073c 87F86731 		strb	r3, [r7, #359]
 1058              	.L56:
 313:../Application/Module/Flash/Flash.c **** 	for(i = 0; i < 15; ++i)
 1059              		.loc 1 313 0 is_stmt 0 discriminator 1
 1060 0740 97F86731 		ldrb	r3, [r7, #359]	@ zero_extendqisi2
 1061 0744 0E2B     		cmp	r3, #14
 1062 0746 7FF66BAF 		bls	.L69
 1063              	.L68:
 365:../Application/Module/Flash/Flash.c **** 		}
 366:../Application/Module/Flash/Flash.c **** 	}
 367:../Application/Module/Flash/Flash.c **** 
 368:../Application/Module/Flash/Flash.c **** 	GetSectorStamp2(&returnStruct2[0]);
 1064              		.loc 1 368 0 is_stmt 1
 1065 074a 07F10C03 		add	r3, r7, #12
 1066 074e 1846     		mov	r0, r3
 1067 0750 FFF7FEFF 		bl	GetSectorStamp2
 369:../Application/Module/Flash/Flash.c **** /*
 370:../Application/Module/Flash/Flash.c **** 	if((returnStruct.FlashStampStruct_Length == dataStruct->FlashStampStruct_Length) && (returnStruct.
 371:../Application/Module/Flash/Flash.c **** 		return FlashBool_True;
 372:../Application/Module/Flash/Flash.c **** 	else
 373:../Application/Module/Flash/Flash.c **** 		return FlashBool_False;*/
 374:../Application/Module/Flash/Flash.c **** 	return FlashBool_True;
 1068              		.loc 1 374 0
 1069 0754 4FF00103 		mov	r3, #1
 375:../Application/Module/Flash/Flash.c **** }
 1070              		.loc 1 375 0
 1071 0758 1846     		mov	r0, r3
 1072 075a 07F5B477 		add	r7, r7, #360
 1073 075e BD46     		mov	sp, r7
 1074 0760 80BD     		pop	{r7, pc}
 1075              	.L72:
 1076 0762 00BF     		.align	2
 1077              	.L71:
 1078 0764 FFFF0108 		.word	134348799
 1079 0768 2C010108 		.word	134283564
 1080 076c 00000108 		.word	134283264
 1081              		.cfi_endproc
 1082              	.LFE115:
 1084              		.align	2
 1085              		.global	FlashSectorStampToDefault
 1086              		.thumb
 1087              		.thumb_func
 1089              	FlashSectorStampToDefault:
 1090              	.LFB116:
 376:../Application/Module/Flash/Flash.c **** 
 377:../Application/Module/Flash/Flash.c **** void FlashSectorStampToDefault(SectorStampToDefaultMode mode)
 378:../Application/Module/Flash/Flash.c **** {
 1091              		.loc 1 378 0
 1092              		.cfi_startproc
 1093              		@ args = 0, pretend = 0, frame = 40
 1094              		@ frame_needed = 1, uses_anonymous_args = 0
 1095 0770 80B5     		push	{r7, lr}
 1096              	.LCFI18:
 1097              		.cfi_def_cfa_offset 8
 1098              		.cfi_offset 7, -8
 1099              		.cfi_offset 14, -4
 1100 0772 8AB0     		sub	sp, sp, #40
 1101              	.LCFI19:
 1102              		.cfi_def_cfa_offset 48
 1103 0774 00AF     		add	r7, sp, #0
 1104              	.LCFI20:
 1105              		.cfi_def_cfa_register 7
 1106 0776 0346     		mov	r3, r0
 1107 0778 FB71     		strb	r3, [r7, #7]
 379:../Application/Module/Flash/Flash.c **** 	uint32_t uwSectorCounter = 0;
 1108              		.loc 1 379 0
 1109 077a 4FF00003 		mov	r3, #0
 1110 077e 3B61     		str	r3, [r7, #16]
 380:../Application/Module/Flash/Flash.c **** 	uint32_t targetSectorCounter = 0;
 1111              		.loc 1 380 0
 1112 0780 4FF00003 		mov	r3, #0
 1113 0784 7B62     		str	r3, [r7, #36]
 381:../Application/Module/Flash/Flash.c **** 	uint32_t targetAddress = 0;
 1114              		.loc 1 381 0
 1115 0786 4FF00003 		mov	r3, #0
 1116 078a 3B62     		str	r3, [r7, #32]
 382:../Application/Module/Flash/Flash.c **** 	uint8_t  targetSelector = 0;
 1117              		.loc 1 382 0
 1118 078c 4FF00003 		mov	r3, #0
 1119 0790 FB77     		strb	r3, [r7, #31]
 383:../Application/Module/Flash/Flash.c **** 	uwSectorCounter = GetSector(ADDR_FLASH_SECTOR_4);
 1120              		.loc 1 383 0
 1121 0792 A448     		ldr	r0, .L131
 1122 0794 FFF7FEFF 		bl	GetSector
 1123 0798 3861     		str	r0, [r7, #16]
 384:../Application/Module/Flash/Flash.c **** 	uint32_t uwAddress = ADDR_FLASH_SECTOR_4;
 1124              		.loc 1 384 0
 1125 079a A24B     		ldr	r3, .L131
 1126 079c BB61     		str	r3, [r7, #24]
 385:../Application/Module/Flash/Flash.c **** 	uint8_t i = 0;
 1127              		.loc 1 385 0
 1128 079e 4FF00003 		mov	r3, #0
 1129 07a2 FB75     		strb	r3, [r7, #23]
 386:../Application/Module/Flash/Flash.c **** 	uint8_t j = 0;
 1130              		.loc 1 386 0
 1131 07a4 4FF00003 		mov	r3, #0
 1132 07a8 BB75     		strb	r3, [r7, #22]
 387:../Application/Module/Flash/Flash.c **** 	uint8_t selector = 0;
 1133              		.loc 1 387 0
 1134 07aa 4FF00003 		mov	r3, #0
 1135 07ae FB73     		strb	r3, [r7, #15]
 388:../Application/Module/Flash/Flash.c **** 	uint8_t cycle = 0;
 1136              		.loc 1 388 0
 1137 07b0 4FF00003 		mov	r3, #0
 1138 07b4 7B75     		strb	r3, [r7, #21]
 389:../Application/Module/Flash/Flash.c **** 
 390:../Application/Module/Flash/Flash.c **** 	selector = *(__IO uint8_t*)ADDR_FLASH_SELECTOR;
 1139              		.loc 1 390 0
 1140 07b6 9C4B     		ldr	r3, .L131+4
 1141 07b8 1B78     		ldrb	r3, [r3, #0]
 1142 07ba FB73     		strb	r3, [r7, #15]
 391:../Application/Module/Flash/Flash.c **** 
 392:../Application/Module/Flash/Flash.c **** 	FLASH_Unlock();
 1143              		.loc 1 392 0
 1144 07bc FFF7FEFF 		bl	FLASH_Unlock
 393:../Application/Module/Flash/Flash.c **** 
 394:../Application/Module/Flash/Flash.c **** 	FLASH_ClearFlag(FLASH_FLAG_EOP | FLASH_FLAG_OPERR | FLASH_FLAG_WRPERR |
 1145              		.loc 1 394 0
 1146 07c0 4FF0F300 		mov	r0, #243
 1147 07c4 FFF7FEFF 		bl	FLASH_ClearFlag
 395:../Application/Module/Flash/Flash.c **** 				FLASH_FLAG_PGAERR | FLASH_FLAG_PGPERR|FLASH_FLAG_PGSERR);
 396:../Application/Module/Flash/Flash.c **** 
 397:../Application/Module/Flash/Flash.c **** 	/* Strat the erase operation */
 398:../Application/Module/Flash/Flash.c **** 	/* Device voltage range supposed to be [2.7V to 3.6V], the operation will
 399:../Application/Module/Flash/Flash.c **** 	be done by word */
 400:../Application/Module/Flash/Flash.c **** 	if (FLASH_EraseSector(uwSectorCounter, VoltageRange_3) != FLASH_COMPLETE)
 1148              		.loc 1 400 0
 1149 07c8 3869     		ldr	r0, [r7, #16]
 1150 07ca 4FF00201 		mov	r1, #2
 1151 07ce FFF7FEFF 		bl	FLASH_EraseSector
 1152 07d2 0346     		mov	r3, r0
 1153 07d4 082B     		cmp	r3, #8
 1154 07d6 00D0     		beq	.L74
 1155              	.L75:
 401:../Application/Module/Flash/Flash.c **** 	{
 402:../Application/Module/Flash/Flash.c **** 	/* Error occurred while sector erase.
 403:../Application/Module/Flash/Flash.c **** 	  User can add here some code to deal with this error  */
 404:../Application/Module/Flash/Flash.c **** 		while (1)
 405:../Application/Module/Flash/Flash.c **** 		{
 406:../Application/Module/Flash/Flash.c **** 		}
 1156              		.loc 1 406 0 discriminator 1
 1157 07d8 FEE7     		b	.L75
 1158              	.L74:
 407:../Application/Module/Flash/Flash.c **** 	}
 408:../Application/Module/Flash/Flash.c **** 
 409:../Application/Module/Flash/Flash.c **** 	for(i = 0; i < 15; i++)
 1159              		.loc 1 409 0
 1160 07da 4FF00003 		mov	r3, #0
 1161 07de FB75     		strb	r3, [r7, #23]
 1162 07e0 BDE1     		b	.L76
 1163              	.L130:
 410:../Application/Module/Flash/Flash.c **** 	{
 411:../Application/Module/Flash/Flash.c **** 		switch(i)
 1164              		.loc 1 411 0
 1165 07e2 FB7D     		ldrb	r3, [r7, #23]	@ zero_extendqisi2
 1166 07e4 0E2B     		cmp	r3, #14
 1167 07e6 00F2A880 		bhi	.L77
 1168 07ea 01A2     		adr	r2, .L93
 1169 07ec 52F823F0 		ldr	pc, [r2, r3, lsl #2]
 1170              		.align	2
 1171              	.L93:
 1172 07f0 2D080000 		.word	.L78+1
 1173 07f4 3F080000 		.word	.L79+1
 1174 07f8 51080000 		.word	.L80+1
 1175 07fc 63080000 		.word	.L81+1
 1176 0800 75080000 		.word	.L82+1
 1177 0804 87080000 		.word	.L83+1
 1178 0808 99080000 		.word	.L84+1
 1179 080c AB080000 		.word	.L85+1
 1180 0810 BD080000 		.word	.L86+1
 1181 0814 CF080000 		.word	.L87+1
 1182 0818 E1080000 		.word	.L88+1
 1183 081c F3080000 		.word	.L89+1
 1184 0820 05090000 		.word	.L90+1
 1185 0824 17090000 		.word	.L91+1
 1186 0828 29090000 		.word	.L92+1
 1187              	.L78:
 412:../Application/Module/Flash/Flash.c **** 		{
 413:../Application/Module/Flash/Flash.c **** 		case 0 :
 414:../Application/Module/Flash/Flash.c **** 			targetSectorCounter = FLASH_Sector_5;
 1188              		.loc 1 414 0
 1189 082c 4FF02803 		mov	r3, #40
 1190 0830 7B62     		str	r3, [r7, #36]
 415:../Application/Module/Flash/Flash.c **** 			targetAddress = ADDR_FLASH_SECTOR_5;
 1191              		.loc 1 415 0
 1192 0832 7E4B     		ldr	r3, .L131+8
 1193 0834 3B62     		str	r3, [r7, #32]
 416:../Application/Module/Flash/Flash.c **** 			targetSelector = FlashSectorSelector_Beginning;
 1194              		.loc 1 416 0
 1195 0836 4FF00003 		mov	r3, #0
 1196 083a FB77     		strb	r3, [r7, #31]
 417:../Application/Module/Flash/Flash.c **** 			break;
 1197              		.loc 1 417 0
 1198 083c 7DE0     		b	.L77
 1199              	.L79:
 418:../Application/Module/Flash/Flash.c **** 
 419:../Application/Module/Flash/Flash.c **** 		case 1 :
 420:../Application/Module/Flash/Flash.c **** 			targetSectorCounter = FLASH_Sector_5;
 1200              		.loc 1 420 0
 1201 083e 4FF02803 		mov	r3, #40
 1202 0842 7B62     		str	r3, [r7, #36]
 421:../Application/Module/Flash/Flash.c **** 			targetAddress = ADDR_FLASH_SECTOR_5;
 1203              		.loc 1 421 0
 1204 0844 794B     		ldr	r3, .L131+8
 1205 0846 3B62     		str	r3, [r7, #32]
 422:../Application/Module/Flash/Flash.c **** 			targetSelector = FlashSectorSelector_Beginning;
 1206              		.loc 1 422 0
 1207 0848 4FF00003 		mov	r3, #0
 1208 084c FB77     		strb	r3, [r7, #31]
 423:../Application/Module/Flash/Flash.c **** 			break;
 1209              		.loc 1 423 0
 1210 084e 74E0     		b	.L77
 1211              	.L80:
 424:../Application/Module/Flash/Flash.c **** 
 425:../Application/Module/Flash/Flash.c **** 		case 2 :
 426:../Application/Module/Flash/Flash.c **** 			targetSectorCounter = FLASH_Sector_5;
 1212              		.loc 1 426 0
 1213 0850 4FF02803 		mov	r3, #40
 1214 0854 7B62     		str	r3, [r7, #36]
 427:../Application/Module/Flash/Flash.c **** 			targetAddress = ADDR_FLASH_SECTOR_5;
 1215              		.loc 1 427 0
 1216 0856 754B     		ldr	r3, .L131+8
 1217 0858 3B62     		str	r3, [r7, #32]
 428:../Application/Module/Flash/Flash.c **** 			targetSelector = FlashSectorSelector_End;
 1218              		.loc 1 428 0
 1219 085a 4FF00103 		mov	r3, #1
 1220 085e FB77     		strb	r3, [r7, #31]
 429:../Application/Module/Flash/Flash.c **** 			break;
 1221              		.loc 1 429 0
 1222 0860 6BE0     		b	.L77
 1223              	.L81:
 430:../Application/Module/Flash/Flash.c **** 
 431:../Application/Module/Flash/Flash.c **** 		case 3 :
 432:../Application/Module/Flash/Flash.c **** 			targetSectorCounter = FLASH_Sector_6;
 1224              		.loc 1 432 0
 1225 0862 4FF03003 		mov	r3, #48
 1226 0866 7B62     		str	r3, [r7, #36]
 433:../Application/Module/Flash/Flash.c **** 			targetAddress = ADDR_FLASH_SECTOR_6;
 1227              		.loc 1 433 0
 1228 0868 714B     		ldr	r3, .L131+12
 1229 086a 3B62     		str	r3, [r7, #32]
 434:../Application/Module/Flash/Flash.c **** 			targetSelector = FlashSectorSelector_Beginning;
 1230              		.loc 1 434 0
 1231 086c 4FF00003 		mov	r3, #0
 1232 0870 FB77     		strb	r3, [r7, #31]
 435:../Application/Module/Flash/Flash.c **** 			break;
 1233              		.loc 1 435 0
 1234 0872 62E0     		b	.L77
 1235              	.L82:
 436:../Application/Module/Flash/Flash.c **** 
 437:../Application/Module/Flash/Flash.c **** 		case 4 :
 438:../Application/Module/Flash/Flash.c **** 			targetSectorCounter = FLASH_Sector_6;
 1236              		.loc 1 438 0
 1237 0874 4FF03003 		mov	r3, #48
 1238 0878 7B62     		str	r3, [r7, #36]
 439:../Application/Module/Flash/Flash.c **** 			targetAddress = ADDR_FLASH_SECTOR_6;
 1239              		.loc 1 439 0
 1240 087a 6D4B     		ldr	r3, .L131+12
 1241 087c 3B62     		str	r3, [r7, #32]
 440:../Application/Module/Flash/Flash.c **** 			targetSelector = FlashSectorSelector_End;
 1242              		.loc 1 440 0
 1243 087e 4FF00103 		mov	r3, #1
 1244 0882 FB77     		strb	r3, [r7, #31]
 441:../Application/Module/Flash/Flash.c **** 			break;
 1245              		.loc 1 441 0
 1246 0884 59E0     		b	.L77
 1247              	.L83:
 442:../Application/Module/Flash/Flash.c **** 
 443:../Application/Module/Flash/Flash.c **** 		case 5 :
 444:../Application/Module/Flash/Flash.c **** 			targetSectorCounter = FLASH_Sector_7;
 1248              		.loc 1 444 0
 1249 0886 4FF03803 		mov	r3, #56
 1250 088a 7B62     		str	r3, [r7, #36]
 445:../Application/Module/Flash/Flash.c **** 			targetAddress = ADDR_FLASH_SECTOR_7;
 1251              		.loc 1 445 0
 1252 088c 694B     		ldr	r3, .L131+16
 1253 088e 3B62     		str	r3, [r7, #32]
 446:../Application/Module/Flash/Flash.c **** 			targetSelector = FlashSectorSelector_Beginning;
 1254              		.loc 1 446 0
 1255 0890 4FF00003 		mov	r3, #0
 1256 0894 FB77     		strb	r3, [r7, #31]
 447:../Application/Module/Flash/Flash.c **** 			break;
 1257              		.loc 1 447 0
 1258 0896 50E0     		b	.L77
 1259              	.L84:
 448:../Application/Module/Flash/Flash.c **** 
 449:../Application/Module/Flash/Flash.c **** 		case 6 :
 450:../Application/Module/Flash/Flash.c **** 			targetSectorCounter = FLASH_Sector_7;
 1260              		.loc 1 450 0
 1261 0898 4FF03803 		mov	r3, #56
 1262 089c 7B62     		str	r3, [r7, #36]
 451:../Application/Module/Flash/Flash.c **** 			targetAddress = ADDR_FLASH_SECTOR_7;
 1263              		.loc 1 451 0
 1264 089e 654B     		ldr	r3, .L131+16
 1265 08a0 3B62     		str	r3, [r7, #32]
 452:../Application/Module/Flash/Flash.c **** 			targetSelector = FlashSectorSelector_End;
 1266              		.loc 1 452 0
 1267 08a2 4FF00103 		mov	r3, #1
 1268 08a6 FB77     		strb	r3, [r7, #31]
 453:../Application/Module/Flash/Flash.c **** 			break;
 1269              		.loc 1 453 0
 1270 08a8 47E0     		b	.L77
 1271              	.L85:
 454:../Application/Module/Flash/Flash.c **** 
 455:../Application/Module/Flash/Flash.c **** 		case 7 :
 456:../Application/Module/Flash/Flash.c **** 			targetSectorCounter = FLASH_Sector_8;
 1272              		.loc 1 456 0
 1273 08aa 4FF04003 		mov	r3, #64
 1274 08ae 7B62     		str	r3, [r7, #36]
 457:../Application/Module/Flash/Flash.c **** 			targetAddress = ADDR_FLASH_SECTOR_8;
 1275              		.loc 1 457 0
 1276 08b0 614B     		ldr	r3, .L131+20
 1277 08b2 3B62     		str	r3, [r7, #32]
 458:../Application/Module/Flash/Flash.c **** 			targetSelector = FlashSectorSelector_Beginning;
 1278              		.loc 1 458 0
 1279 08b4 4FF00003 		mov	r3, #0
 1280 08b8 FB77     		strb	r3, [r7, #31]
 459:../Application/Module/Flash/Flash.c **** 			break;
 1281              		.loc 1 459 0
 1282 08ba 3EE0     		b	.L77
 1283              	.L86:
 460:../Application/Module/Flash/Flash.c **** 
 461:../Application/Module/Flash/Flash.c **** 		case 8 :
 462:../Application/Module/Flash/Flash.c **** 			targetSectorCounter = FLASH_Sector_8;
 1284              		.loc 1 462 0
 1285 08bc 4FF04003 		mov	r3, #64
 1286 08c0 7B62     		str	r3, [r7, #36]
 463:../Application/Module/Flash/Flash.c **** 			targetAddress = ADDR_FLASH_SECTOR_8;
 1287              		.loc 1 463 0
 1288 08c2 5D4B     		ldr	r3, .L131+20
 1289 08c4 3B62     		str	r3, [r7, #32]
 464:../Application/Module/Flash/Flash.c **** 			targetSelector = FlashSectorSelector_End;
 1290              		.loc 1 464 0
 1291 08c6 4FF00103 		mov	r3, #1
 1292 08ca FB77     		strb	r3, [r7, #31]
 465:../Application/Module/Flash/Flash.c **** 			break;
 1293              		.loc 1 465 0
 1294 08cc 35E0     		b	.L77
 1295              	.L87:
 466:../Application/Module/Flash/Flash.c **** 
 467:../Application/Module/Flash/Flash.c **** 		case 9 :
 468:../Application/Module/Flash/Flash.c **** 			targetSectorCounter = FLASH_Sector_9;
 1296              		.loc 1 468 0
 1297 08ce 4FF04803 		mov	r3, #72
 1298 08d2 7B62     		str	r3, [r7, #36]
 469:../Application/Module/Flash/Flash.c **** 			targetAddress = ADDR_FLASH_SECTOR_9;
 1299              		.loc 1 469 0
 1300 08d4 594B     		ldr	r3, .L131+24
 1301 08d6 3B62     		str	r3, [r7, #32]
 470:../Application/Module/Flash/Flash.c **** 			targetSelector = FlashSectorSelector_Beginning;
 1302              		.loc 1 470 0
 1303 08d8 4FF00003 		mov	r3, #0
 1304 08dc FB77     		strb	r3, [r7, #31]
 471:../Application/Module/Flash/Flash.c **** 			break;
 1305              		.loc 1 471 0
 1306 08de 2CE0     		b	.L77
 1307              	.L88:
 472:../Application/Module/Flash/Flash.c **** 
 473:../Application/Module/Flash/Flash.c **** 		case 10 :
 474:../Application/Module/Flash/Flash.c **** 			targetSectorCounter = FLASH_Sector_9;
 1308              		.loc 1 474 0
 1309 08e0 4FF04803 		mov	r3, #72
 1310 08e4 7B62     		str	r3, [r7, #36]
 475:../Application/Module/Flash/Flash.c **** 			targetAddress = ADDR_FLASH_SECTOR_9;
 1311              		.loc 1 475 0
 1312 08e6 554B     		ldr	r3, .L131+24
 1313 08e8 3B62     		str	r3, [r7, #32]
 476:../Application/Module/Flash/Flash.c **** 			targetSelector = FlashSectorSelector_End;
 1314              		.loc 1 476 0
 1315 08ea 4FF00103 		mov	r3, #1
 1316 08ee FB77     		strb	r3, [r7, #31]
 477:../Application/Module/Flash/Flash.c **** 			break;
 1317              		.loc 1 477 0
 1318 08f0 23E0     		b	.L77
 1319              	.L89:
 478:../Application/Module/Flash/Flash.c **** 
 479:../Application/Module/Flash/Flash.c **** 		case 11 :
 480:../Application/Module/Flash/Flash.c **** 			targetSectorCounter = FLASH_Sector_10;
 1320              		.loc 1 480 0
 1321 08f2 4FF05003 		mov	r3, #80
 1322 08f6 7B62     		str	r3, [r7, #36]
 481:../Application/Module/Flash/Flash.c **** 			targetAddress = ADDR_FLASH_SECTOR_10;
 1323              		.loc 1 481 0
 1324 08f8 514B     		ldr	r3, .L131+28
 1325 08fa 3B62     		str	r3, [r7, #32]
 482:../Application/Module/Flash/Flash.c **** 			targetSelector = FlashSectorSelector_Beginning;
 1326              		.loc 1 482 0
 1327 08fc 4FF00003 		mov	r3, #0
 1328 0900 FB77     		strb	r3, [r7, #31]
 483:../Application/Module/Flash/Flash.c **** 			break;
 1329              		.loc 1 483 0
 1330 0902 1AE0     		b	.L77
 1331              	.L90:
 484:../Application/Module/Flash/Flash.c **** 
 485:../Application/Module/Flash/Flash.c **** 		case 12 :
 486:../Application/Module/Flash/Flash.c **** 			targetSectorCounter = FLASH_Sector_10;
 1332              		.loc 1 486 0
 1333 0904 4FF05003 		mov	r3, #80
 1334 0908 7B62     		str	r3, [r7, #36]
 487:../Application/Module/Flash/Flash.c **** 			targetAddress = ADDR_FLASH_SECTOR_10;
 1335              		.loc 1 487 0
 1336 090a 4D4B     		ldr	r3, .L131+28
 1337 090c 3B62     		str	r3, [r7, #32]
 488:../Application/Module/Flash/Flash.c **** 			targetSelector = FlashSectorSelector_End;
 1338              		.loc 1 488 0
 1339 090e 4FF00103 		mov	r3, #1
 1340 0912 FB77     		strb	r3, [r7, #31]
 489:../Application/Module/Flash/Flash.c **** 			break;
 1341              		.loc 1 489 0
 1342 0914 11E0     		b	.L77
 1343              	.L91:
 490:../Application/Module/Flash/Flash.c **** 
 491:../Application/Module/Flash/Flash.c **** 		case 13 :
 492:../Application/Module/Flash/Flash.c **** 			targetSectorCounter = FLASH_Sector_11;
 1344              		.loc 1 492 0
 1345 0916 4FF05803 		mov	r3, #88
 1346 091a 7B62     		str	r3, [r7, #36]
 493:../Application/Module/Flash/Flash.c **** 			targetAddress = ADDR_FLASH_SECTOR_11;
 1347              		.loc 1 493 0
 1348 091c 494B     		ldr	r3, .L131+32
 1349 091e 3B62     		str	r3, [r7, #32]
 494:../Application/Module/Flash/Flash.c **** 			targetSelector = FlashSectorSelector_Beginning;
 1350              		.loc 1 494 0
 1351 0920 4FF00003 		mov	r3, #0
 1352 0924 FB77     		strb	r3, [r7, #31]
 495:../Application/Module/Flash/Flash.c **** 			break;
 1353              		.loc 1 495 0
 1354 0926 08E0     		b	.L77
 1355              	.L92:
 496:../Application/Module/Flash/Flash.c **** 
 497:../Application/Module/Flash/Flash.c **** 		case 14 :
 498:../Application/Module/Flash/Flash.c **** 			targetSectorCounter = FLASH_Sector_11;
 1356              		.loc 1 498 0
 1357 0928 4FF05803 		mov	r3, #88
 1358 092c 7B62     		str	r3, [r7, #36]
 499:../Application/Module/Flash/Flash.c **** 			targetAddress = ADDR_FLASH_SECTOR_11;
 1359              		.loc 1 499 0
 1360 092e 454B     		ldr	r3, .L131+32
 1361 0930 3B62     		str	r3, [r7, #32]
 500:../Application/Module/Flash/Flash.c **** 			targetSelector = FlashSectorSelector_End;
 1362              		.loc 1 500 0
 1363 0932 4FF00103 		mov	r3, #1
 1364 0936 FB77     		strb	r3, [r7, #31]
 501:../Application/Module/Flash/Flash.c **** 			break;
 1365              		.loc 1 501 0
 1366 0938 00BF     		nop
 1367              	.L77:
 502:../Application/Module/Flash/Flash.c **** 		}
 503:../Application/Module/Flash/Flash.c **** 
 504:../Application/Module/Flash/Flash.c **** 		if(mode == SectorStampToDefaultMode_Only_First)
 1368              		.loc 1 504 0
 1369 093a FB79     		ldrb	r3, [r7, #7]	@ zero_extendqisi2
 1370 093c 022B     		cmp	r3, #2
 1371 093e 03D1     		bne	.L94
 505:../Application/Module/Flash/Flash.c **** 			cycle = 2;
 1372              		.loc 1 505 0
 1373 0940 4FF00203 		mov	r3, #2
 1374 0944 7B75     		strb	r3, [r7, #21]
 1375 0946 02E0     		b	.L95
 1376              	.L94:
 506:../Application/Module/Flash/Flash.c **** 		else
 507:../Application/Module/Flash/Flash.c **** 			cycle = 1;
 1377              		.loc 1 507 0
 1378 0948 4FF00103 		mov	r3, #1
 1379 094c 7B75     		strb	r3, [r7, #21]
 1380              	.L95:
 508:../Application/Module/Flash/Flash.c **** 
 509:../Application/Module/Flash/Flash.c **** 		for(j = 0; j < cycle; j++)
 1381              		.loc 1 509 0
 1382 094e 4FF00003 		mov	r3, #0
 1383 0952 BB75     		strb	r3, [r7, #22]
 1384 0954 FAE0     		b	.L96
 1385              	.L129:
 510:../Application/Module/Flash/Flash.c **** 		{
 511:../Application/Module/Flash/Flash.c **** 			if((j == 1) || (selector == FlashStumpSelector_Beginning))
 1386              		.loc 1 511 0
 1387 0956 BB7D     		ldrb	r3, [r7, #22]	@ zero_extendqisi2
 1388 0958 012B     		cmp	r3, #1
 1389 095a 02D0     		beq	.L97
 1390              		.loc 1 511 0 is_stmt 0 discriminator 1
 1391 095c FB7B     		ldrb	r3, [r7, #15]	@ zero_extendqisi2
 1392 095e 012B     		cmp	r3, #1
 1393 0960 01D1     		bne	.L98
 1394              	.L97:
 512:../Application/Module/Flash/Flash.c **** 				uwAddress = ADDR_FLASH_SECTOR_4 + ( sizeof(FlashStampStruct) * 15 );
 1395              		.loc 1 512 0 is_stmt 1
 1396 0962 394B     		ldr	r3, .L131+36
 1397 0964 BB61     		str	r3, [r7, #24]
 1398              	.L98:
 513:../Application/Module/Flash/Flash.c **** 
 514:../Application/Module/Flash/Flash.c **** 			if (FLASH_ProgramByte(uwAddress, ((targetAddress) & 0xFF)) != FLASH_COMPLETE)
 1399              		.loc 1 514 0
 1400 0966 3B6A     		ldr	r3, [r7, #32]
 1401 0968 DBB2     		uxtb	r3, r3
 1402 096a B869     		ldr	r0, [r7, #24]
 1403 096c 1946     		mov	r1, r3
 1404 096e FFF7FEFF 		bl	FLASH_ProgramByte
 1405 0972 0346     		mov	r3, r0
 1406 0974 082B     		cmp	r3, #8
 1407 0976 00D0     		beq	.L99
 1408              	.L100:
 515:../Application/Module/Flash/Flash.c **** 			{
 516:../Application/Module/Flash/Flash.c **** 				while (1)
 517:../Application/Module/Flash/Flash.c **** 				{
 518:../Application/Module/Flash/Flash.c **** 				}
 1409              		.loc 1 518 0 discriminator 1
 1410 0978 FEE7     		b	.L100
 1411              	.L99:
 519:../Application/Module/Flash/Flash.c **** 			}
 520:../Application/Module/Flash/Flash.c **** 			uwAddress++;
 1412              		.loc 1 520 0
 1413 097a BB69     		ldr	r3, [r7, #24]
 1414 097c 03F10103 		add	r3, r3, #1
 1415 0980 BB61     		str	r3, [r7, #24]
 521:../Application/Module/Flash/Flash.c **** 
 522:../Application/Module/Flash/Flash.c **** 			if (FLASH_ProgramByte(uwAddress, (((targetAddress) & 0xFF00) >> 8)) != FLASH_COMPLETE)
 1416              		.loc 1 522 0
 1417 0982 3B6A     		ldr	r3, [r7, #32]
 1418 0984 03F47F43 		and	r3, r3, #65280
 1419 0988 4FEA1323 		lsr	r3, r3, #8
 1420 098c DBB2     		uxtb	r3, r3
 1421 098e B869     		ldr	r0, [r7, #24]
 1422 0990 1946     		mov	r1, r3
 1423 0992 FFF7FEFF 		bl	FLASH_ProgramByte
 1424 0996 0346     		mov	r3, r0
 1425 0998 082B     		cmp	r3, #8
 1426 099a 00D0     		beq	.L101
 1427              	.L102:
 523:../Application/Module/Flash/Flash.c **** 			{
 524:../Application/Module/Flash/Flash.c **** 				while (1)
 525:../Application/Module/Flash/Flash.c **** 				{
 526:../Application/Module/Flash/Flash.c **** 				}
 1428              		.loc 1 526 0 discriminator 1
 1429 099c FEE7     		b	.L102
 1430              	.L101:
 527:../Application/Module/Flash/Flash.c **** 			}
 528:../Application/Module/Flash/Flash.c **** 			uwAddress++;
 1431              		.loc 1 528 0
 1432 099e BB69     		ldr	r3, [r7, #24]
 1433 09a0 03F10103 		add	r3, r3, #1
 1434 09a4 BB61     		str	r3, [r7, #24]
 529:../Application/Module/Flash/Flash.c **** 
 530:../Application/Module/Flash/Flash.c **** 			if (FLASH_ProgramByte(uwAddress, (((targetAddress) & 0xFF0000) >> 16)) != FLASH_COMPLETE)
 1435              		.loc 1 530 0
 1436 09a6 3B6A     		ldr	r3, [r7, #32]
 1437 09a8 03F47F03 		and	r3, r3, #16711680
 1438 09ac 4FEA1343 		lsr	r3, r3, #16
 1439 09b0 DBB2     		uxtb	r3, r3
 1440 09b2 B869     		ldr	r0, [r7, #24]
 1441 09b4 1946     		mov	r1, r3
 1442 09b6 FFF7FEFF 		bl	FLASH_ProgramByte
 1443 09ba 0346     		mov	r3, r0
 1444 09bc 082B     		cmp	r3, #8
 1445 09be 00D0     		beq	.L103
 1446              	.L104:
 531:../Application/Module/Flash/Flash.c **** 			{
 532:../Application/Module/Flash/Flash.c **** 				while (1)
 533:../Application/Module/Flash/Flash.c **** 				{
 534:../Application/Module/Flash/Flash.c **** 				}
 1447              		.loc 1 534 0 discriminator 1
 1448 09c0 FEE7     		b	.L104
 1449              	.L103:
 535:../Application/Module/Flash/Flash.c **** 			}
 536:../Application/Module/Flash/Flash.c **** 			uwAddress++;
 1450              		.loc 1 536 0
 1451 09c2 BB69     		ldr	r3, [r7, #24]
 1452 09c4 03F10103 		add	r3, r3, #1
 1453 09c8 BB61     		str	r3, [r7, #24]
 537:../Application/Module/Flash/Flash.c **** 
 538:../Application/Module/Flash/Flash.c **** 			if (FLASH_ProgramByte(uwAddress, (((targetAddress) & 0xFF000000) >> 24)) != FLASH_COMPLETE)
 1454              		.loc 1 538 0
 1455 09ca 3B6A     		ldr	r3, [r7, #32]
 1456 09cc 4FEA1363 		lsr	r3, r3, #24
 1457 09d0 DBB2     		uxtb	r3, r3
 1458 09d2 B869     		ldr	r0, [r7, #24]
 1459 09d4 1946     		mov	r1, r3
 1460 09d6 FFF7FEFF 		bl	FLASH_ProgramByte
 1461 09da 0346     		mov	r3, r0
 1462 09dc 082B     		cmp	r3, #8
 1463 09de 00D0     		beq	.L105
 1464              	.L106:
 539:../Application/Module/Flash/Flash.c **** 			{
 540:../Application/Module/Flash/Flash.c **** 				while (1)
 541:../Application/Module/Flash/Flash.c **** 				{
 542:../Application/Module/Flash/Flash.c **** 				}
 1465              		.loc 1 542 0 discriminator 1
 1466 09e0 FEE7     		b	.L106
 1467              	.L105:
 543:../Application/Module/Flash/Flash.c **** 			}
 544:../Application/Module/Flash/Flash.c **** 			uwAddress++;
 1468              		.loc 1 544 0
 1469 09e2 BB69     		ldr	r3, [r7, #24]
 1470 09e4 03F10103 		add	r3, r3, #1
 1471 09e8 BB61     		str	r3, [r7, #24]
 545:../Application/Module/Flash/Flash.c **** 
 546:../Application/Module/Flash/Flash.c **** 
 547:../Application/Module/Flash/Flash.c **** 
 548:../Application/Module/Flash/Flash.c **** 			if (FLASH_ProgramByte(uwAddress, ((targetSectorCounter) & 0xFF)) != FLASH_COMPLETE)
 1472              		.loc 1 548 0
 1473 09ea 7B6A     		ldr	r3, [r7, #36]
 1474 09ec DBB2     		uxtb	r3, r3
 1475 09ee B869     		ldr	r0, [r7, #24]
 1476 09f0 1946     		mov	r1, r3
 1477 09f2 FFF7FEFF 		bl	FLASH_ProgramByte
 1478 09f6 0346     		mov	r3, r0
 1479 09f8 082B     		cmp	r3, #8
 1480 09fa 00D0     		beq	.L107
 1481              	.L108:
 549:../Application/Module/Flash/Flash.c **** 			{
 550:../Application/Module/Flash/Flash.c **** 				while (1)
 551:../Application/Module/Flash/Flash.c **** 				{
 552:../Application/Module/Flash/Flash.c **** 				}
 1482              		.loc 1 552 0 discriminator 1
 1483 09fc FEE7     		b	.L108
 1484              	.L107:
 553:../Application/Module/Flash/Flash.c **** 			}
 554:../Application/Module/Flash/Flash.c **** 			uwAddress++;
 1485              		.loc 1 554 0
 1486 09fe BB69     		ldr	r3, [r7, #24]
 1487 0a00 03F10103 		add	r3, r3, #1
 1488 0a04 BB61     		str	r3, [r7, #24]
 555:../Application/Module/Flash/Flash.c **** 
 556:../Application/Module/Flash/Flash.c **** 			if (FLASH_ProgramByte(uwAddress, (((targetSectorCounter) & 0xFF00) >> 8)) != FLASH_COMPLETE)
 1489              		.loc 1 556 0
 1490 0a06 7B6A     		ldr	r3, [r7, #36]
 1491 0a08 03F47F43 		and	r3, r3, #65280
 1492 0a0c 4FEA1323 		lsr	r3, r3, #8
 1493 0a10 DBB2     		uxtb	r3, r3
 1494 0a12 B869     		ldr	r0, [r7, #24]
 1495 0a14 1946     		mov	r1, r3
 1496 0a16 FFF7FEFF 		bl	FLASH_ProgramByte
 1497 0a1a 0346     		mov	r3, r0
 1498 0a1c 082B     		cmp	r3, #8
 1499 0a1e 15D0     		beq	.L109
 1500              	.L110:
 557:../Application/Module/Flash/Flash.c **** 			{
 558:../Application/Module/Flash/Flash.c **** 				while (1)
 559:../Application/Module/Flash/Flash.c **** 				{
 560:../Application/Module/Flash/Flash.c **** 				}
 1501              		.loc 1 560 0 discriminator 1
 1502 0a20 FEE7     		b	.L110
 1503              	.L132:
 1504 0a22 00BF     		.align	2
 1505              	.L131:
 1506 0a24 00000108 		.word	134283264
 1507 0a28 FFFF0108 		.word	134348799
 1508 0a2c 00000208 		.word	134348800
 1509 0a30 00000408 		.word	134479872
 1510 0a34 00000608 		.word	134610944
 1511 0a38 00000808 		.word	134742016
 1512 0a3c 00000A08 		.word	134873088
 1513 0a40 00000C08 		.word	135004160
 1514 0a44 00000E08 		.word	135135232
 1515 0a48 2C010108 		.word	134283564
 1516              	.L109:
 561:../Application/Module/Flash/Flash.c **** 			}
 562:../Application/Module/Flash/Flash.c **** 			uwAddress++;
 1517              		.loc 1 562 0
 1518 0a4c BB69     		ldr	r3, [r7, #24]
 1519 0a4e 03F10103 		add	r3, r3, #1
 1520 0a52 BB61     		str	r3, [r7, #24]
 563:../Application/Module/Flash/Flash.c **** 
 564:../Application/Module/Flash/Flash.c **** 			if (FLASH_ProgramByte(uwAddress, (((targetSectorCounter) & 0xFF0000) >> 16)) != FLASH_COMPLETE)
 1521              		.loc 1 564 0
 1522 0a54 7B6A     		ldr	r3, [r7, #36]
 1523 0a56 03F47F03 		and	r3, r3, #16711680
 1524 0a5a 4FEA1343 		lsr	r3, r3, #16
 1525 0a5e DBB2     		uxtb	r3, r3
 1526 0a60 B869     		ldr	r0, [r7, #24]
 1527 0a62 1946     		mov	r1, r3
 1528 0a64 FFF7FEFF 		bl	FLASH_ProgramByte
 1529 0a68 0346     		mov	r3, r0
 1530 0a6a 082B     		cmp	r3, #8
 1531 0a6c 00D0     		beq	.L111
 1532              	.L112:
 565:../Application/Module/Flash/Flash.c **** 			{
 566:../Application/Module/Flash/Flash.c **** 				while (1)
 567:../Application/Module/Flash/Flash.c **** 				{
 568:../Application/Module/Flash/Flash.c **** 				}
 1533              		.loc 1 568 0 discriminator 1
 1534 0a6e FEE7     		b	.L112
 1535              	.L111:
 569:../Application/Module/Flash/Flash.c **** 			}
 570:../Application/Module/Flash/Flash.c **** 			uwAddress++;
 1536              		.loc 1 570 0
 1537 0a70 BB69     		ldr	r3, [r7, #24]
 1538 0a72 03F10103 		add	r3, r3, #1
 1539 0a76 BB61     		str	r3, [r7, #24]
 571:../Application/Module/Flash/Flash.c **** 
 572:../Application/Module/Flash/Flash.c **** 			if (FLASH_ProgramByte(uwAddress, (((targetSectorCounter) & 0xFF000000) >> 24)) != FLASH_COMPLETE
 1540              		.loc 1 572 0
 1541 0a78 7B6A     		ldr	r3, [r7, #36]
 1542 0a7a 4FEA1363 		lsr	r3, r3, #24
 1543 0a7e DBB2     		uxtb	r3, r3
 1544 0a80 B869     		ldr	r0, [r7, #24]
 1545 0a82 1946     		mov	r1, r3
 1546 0a84 FFF7FEFF 		bl	FLASH_ProgramByte
 1547 0a88 0346     		mov	r3, r0
 1548 0a8a 082B     		cmp	r3, #8
 1549 0a8c 00D0     		beq	.L113
 1550              	.L114:
 573:../Application/Module/Flash/Flash.c **** 			{
 574:../Application/Module/Flash/Flash.c **** 				while (1)
 575:../Application/Module/Flash/Flash.c **** 				{
 576:../Application/Module/Flash/Flash.c **** 				}
 1551              		.loc 1 576 0 discriminator 1
 1552 0a8e FEE7     		b	.L114
 1553              	.L113:
 577:../Application/Module/Flash/Flash.c **** 			}
 578:../Application/Module/Flash/Flash.c **** 			uwAddress++;
 1554              		.loc 1 578 0
 1555 0a90 BB69     		ldr	r3, [r7, #24]
 1556 0a92 03F10103 		add	r3, r3, #1
 1557 0a96 BB61     		str	r3, [r7, #24]
 579:../Application/Module/Flash/Flash.c **** 
 580:../Application/Module/Flash/Flash.c **** 
 581:../Application/Module/Flash/Flash.c **** 
 582:../Application/Module/Flash/Flash.c **** 			if (FLASH_ProgramByte(uwAddress, (targetSelector)) != FLASH_COMPLETE)
 1558              		.loc 1 582 0
 1559 0a98 FB7F     		ldrb	r3, [r7, #31]	@ zero_extendqisi2
 1560 0a9a B869     		ldr	r0, [r7, #24]
 1561 0a9c 1946     		mov	r1, r3
 1562 0a9e FFF7FEFF 		bl	FLASH_ProgramByte
 1563 0aa2 0346     		mov	r3, r0
 1564 0aa4 082B     		cmp	r3, #8
 1565 0aa6 00D0     		beq	.L115
 1566              	.L116:
 583:../Application/Module/Flash/Flash.c **** 			{
 584:../Application/Module/Flash/Flash.c **** 				while (1)
 585:../Application/Module/Flash/Flash.c **** 				{
 586:../Application/Module/Flash/Flash.c **** 				}
 1567              		.loc 1 586 0 discriminator 1
 1568 0aa8 FEE7     		b	.L116
 1569              	.L115:
 587:../Application/Module/Flash/Flash.c **** 			}
 588:../Application/Module/Flash/Flash.c **** 			uwAddress++;
 1570              		.loc 1 588 0
 1571 0aaa BB69     		ldr	r3, [r7, #24]
 1572 0aac 03F10103 		add	r3, r3, #1
 1573 0ab0 BB61     		str	r3, [r7, #24]
 589:../Application/Module/Flash/Flash.c **** 
 590:../Application/Module/Flash/Flash.c **** 			if(i == 0)
 1574              		.loc 1 590 0
 1575 0ab2 FB7D     		ldrb	r3, [r7, #23]	@ zero_extendqisi2
 1576 0ab4 002B     		cmp	r3, #0
 1577 0ab6 41D1     		bne	.L117
 591:../Application/Module/Flash/Flash.c **** 			{
 592:../Application/Module/Flash/Flash.c **** 				if (FLASH_ProgramByte(uwAddress, 0) != FLASH_COMPLETE)
 1578              		.loc 1 592 0
 1579 0ab8 B869     		ldr	r0, [r7, #24]
 1580 0aba 4FF00001 		mov	r1, #0
 1581 0abe FFF7FEFF 		bl	FLASH_ProgramByte
 1582 0ac2 0346     		mov	r3, r0
 1583 0ac4 082B     		cmp	r3, #8
 1584 0ac6 00D0     		beq	.L118
 1585              	.L119:
 593:../Application/Module/Flash/Flash.c **** 				{
 594:../Application/Module/Flash/Flash.c **** 					while (1)
 595:../Application/Module/Flash/Flash.c **** 					{
 596:../Application/Module/Flash/Flash.c **** 					}
 1586              		.loc 1 596 0 discriminator 1
 1587 0ac8 FEE7     		b	.L119
 1588              	.L118:
 597:../Application/Module/Flash/Flash.c **** 				}
 598:../Application/Module/Flash/Flash.c **** 				uwAddress++;
 1589              		.loc 1 598 0
 1590 0aca BB69     		ldr	r3, [r7, #24]
 1591 0acc 03F10103 		add	r3, r3, #1
 1592 0ad0 BB61     		str	r3, [r7, #24]
 599:../Application/Module/Flash/Flash.c **** 
 600:../Application/Module/Flash/Flash.c **** 				if (FLASH_ProgramByte(uwAddress, 0) != FLASH_COMPLETE)
 1593              		.loc 1 600 0
 1594 0ad2 B869     		ldr	r0, [r7, #24]
 1595 0ad4 4FF00001 		mov	r1, #0
 1596 0ad8 FFF7FEFF 		bl	FLASH_ProgramByte
 1597 0adc 0346     		mov	r3, r0
 1598 0ade 082B     		cmp	r3, #8
 1599 0ae0 00D0     		beq	.L120
 1600              	.L121:
 601:../Application/Module/Flash/Flash.c **** 				{
 602:../Application/Module/Flash/Flash.c **** 					while (1)
 603:../Application/Module/Flash/Flash.c **** 					{
 604:../Application/Module/Flash/Flash.c **** 					}
 1601              		.loc 1 604 0 discriminator 1
 1602 0ae2 FEE7     		b	.L121
 1603              	.L120:
 605:../Application/Module/Flash/Flash.c **** 				}
 606:../Application/Module/Flash/Flash.c **** 				uwAddress++;
 1604              		.loc 1 606 0
 1605 0ae4 BB69     		ldr	r3, [r7, #24]
 1606 0ae6 03F10103 		add	r3, r3, #1
 1607 0aea BB61     		str	r3, [r7, #24]
 607:../Application/Module/Flash/Flash.c **** 
 608:../Application/Module/Flash/Flash.c **** 				if (FLASH_ProgramByte(uwAddress, 0) != FLASH_COMPLETE)
 1608              		.loc 1 608 0
 1609 0aec B869     		ldr	r0, [r7, #24]
 1610 0aee 4FF00001 		mov	r1, #0
 1611 0af2 FFF7FEFF 		bl	FLASH_ProgramByte
 1612 0af6 0346     		mov	r3, r0
 1613 0af8 082B     		cmp	r3, #8
 1614 0afa 00D0     		beq	.L122
 1615              	.L123:
 609:../Application/Module/Flash/Flash.c **** 				{
 610:../Application/Module/Flash/Flash.c **** 					while (1)
 611:../Application/Module/Flash/Flash.c **** 					{
 612:../Application/Module/Flash/Flash.c **** 					}
 1616              		.loc 1 612 0 discriminator 1
 1617 0afc FEE7     		b	.L123
 1618              	.L122:
 613:../Application/Module/Flash/Flash.c **** 				}
 614:../Application/Module/Flash/Flash.c **** 				uwAddress++;
 1619              		.loc 1 614 0
 1620 0afe BB69     		ldr	r3, [r7, #24]
 1621 0b00 03F10103 		add	r3, r3, #1
 1622 0b04 BB61     		str	r3, [r7, #24]
 615:../Application/Module/Flash/Flash.c **** 
 616:../Application/Module/Flash/Flash.c **** 				if (FLASH_ProgramByte(uwAddress, 0) != FLASH_COMPLETE)
 1623              		.loc 1 616 0
 1624 0b06 B869     		ldr	r0, [r7, #24]
 1625 0b08 4FF00001 		mov	r1, #0
 1626 0b0c FFF7FEFF 		bl	FLASH_ProgramByte
 1627 0b10 0346     		mov	r3, r0
 1628 0b12 082B     		cmp	r3, #8
 1629 0b14 00D0     		beq	.L124
 1630              	.L125:
 617:../Application/Module/Flash/Flash.c **** 				{
 618:../Application/Module/Flash/Flash.c **** 					while (1)
 619:../Application/Module/Flash/Flash.c **** 					{
 620:../Application/Module/Flash/Flash.c **** 					}
 1631              		.loc 1 620 0 discriminator 1
 1632 0b16 FEE7     		b	.L125
 1633              	.L124:
 621:../Application/Module/Flash/Flash.c **** 				}
 622:../Application/Module/Flash/Flash.c **** 				uwAddress++;
 1634              		.loc 1 622 0
 1635 0b18 BB69     		ldr	r3, [r7, #24]
 1636 0b1a 03F10103 		add	r3, r3, #1
 1637 0b1e BB61     		str	r3, [r7, #24]
 623:../Application/Module/Flash/Flash.c **** 
 624:../Application/Module/Flash/Flash.c **** 				if (FLASH_ProgramByte(uwAddress, 0) != FLASH_COMPLETE)
 1638              		.loc 1 624 0
 1639 0b20 B869     		ldr	r0, [r7, #24]
 1640 0b22 4FF00001 		mov	r1, #0
 1641 0b26 FFF7FEFF 		bl	FLASH_ProgramByte
 1642 0b2a 0346     		mov	r3, r0
 1643 0b2c 082B     		cmp	r3, #8
 1644 0b2e 00D0     		beq	.L126
 1645              	.L127:
 625:../Application/Module/Flash/Flash.c **** 				{
 626:../Application/Module/Flash/Flash.c **** 					while (1)
 627:../Application/Module/Flash/Flash.c **** 					{
 628:../Application/Module/Flash/Flash.c **** 					}
 1646              		.loc 1 628 0 discriminator 1
 1647 0b30 FEE7     		b	.L127
 1648              	.L126:
 629:../Application/Module/Flash/Flash.c **** 				}
 630:../Application/Module/Flash/Flash.c **** 				uwAddress++;
 1649              		.loc 1 630 0
 1650 0b32 BB69     		ldr	r3, [r7, #24]
 1651 0b34 03F10103 		add	r3, r3, #1
 1652 0b38 BB61     		str	r3, [r7, #24]
 1653 0b3a 03E0     		b	.L128
 1654              	.L117:
 631:../Application/Module/Flash/Flash.c **** 			}
 632:../Application/Module/Flash/Flash.c **** 
 633:../Application/Module/Flash/Flash.c **** 			else
 634:../Application/Module/Flash/Flash.c **** 				uwAddress += 5;
 1655              		.loc 1 634 0
 1656 0b3c BB69     		ldr	r3, [r7, #24]
 1657 0b3e 03F10503 		add	r3, r3, #5
 1658 0b42 BB61     		str	r3, [r7, #24]
 1659              	.L128:
 509:../Application/Module/Flash/Flash.c **** 		for(j = 0; j < cycle; j++)
 1660              		.loc 1 509 0
 1661 0b44 BB7D     		ldrb	r3, [r7, #22]
 1662 0b46 03F10103 		add	r3, r3, #1
 1663 0b4a BB75     		strb	r3, [r7, #22]
 1664              	.L96:
 509:../Application/Module/Flash/Flash.c **** 		for(j = 0; j < cycle; j++)
 1665              		.loc 1 509 0 is_stmt 0 discriminator 1
 1666 0b4c BA7D     		ldrb	r2, [r7, #22]	@ zero_extendqisi2
 1667 0b4e 7B7D     		ldrb	r3, [r7, #21]	@ zero_extendqisi2
 1668 0b50 9A42     		cmp	r2, r3
 1669 0b52 FFF400AF 		bcc	.L129
 409:../Application/Module/Flash/Flash.c **** 	for(i = 0; i < 15; i++)
 1670              		.loc 1 409 0 is_stmt 1
 1671 0b56 FB7D     		ldrb	r3, [r7, #23]
 1672 0b58 03F10103 		add	r3, r3, #1
 1673 0b5c FB75     		strb	r3, [r7, #23]
 1674              	.L76:
 409:../Application/Module/Flash/Flash.c **** 	for(i = 0; i < 15; i++)
 1675              		.loc 1 409 0 is_stmt 0 discriminator 1
 1676 0b5e FB7D     		ldrb	r3, [r7, #23]	@ zero_extendqisi2
 1677 0b60 0E2B     		cmp	r3, #14
 1678 0b62 7FF63EAE 		bls	.L130
 635:../Application/Module/Flash/Flash.c **** 		}
 636:../Application/Module/Flash/Flash.c **** 	}
 637:../Application/Module/Flash/Flash.c **** 
 638:../Application/Module/Flash/Flash.c **** 	if(mode == SectorStampToDefaultMode_In_Use)
 639:../Application/Module/Flash/Flash.c **** 	{
 640:../Application/Module/Flash/Flash.c **** 
 641:../Application/Module/Flash/Flash.c **** 	}
 642:../Application/Module/Flash/Flash.c **** 
 643:../Application/Module/Flash/Flash.c **** 	FLASH_Lock();
 1679              		.loc 1 643 0 is_stmt 1
 1680 0b66 FFF7FEFF 		bl	FLASH_Lock
 644:../Application/Module/Flash/Flash.c **** }
 1681              		.loc 1 644 0
 1682 0b6a 07F12807 		add	r7, r7, #40
 1683 0b6e BD46     		mov	sp, r7
 1684 0b70 80BD     		pop	{r7, pc}
 1685              		.cfi_endproc
 1686              	.LFE116:
 1688 0b72 00BF     		.align	2
 1689              		.global	CopyToFlashTest
 1690              		.thumb
 1691              		.thumb_func
 1693              	CopyToFlashTest:
 1694              	.LFB117:
 645:../Application/Module/Flash/Flash.c **** 
 646:../Application/Module/Flash/Flash.c **** void CopyToFlashTest(uint16_t* matrix, uint32_t numberOfHalfWorlds)
 647:../Application/Module/Flash/Flash.c **** {
 1695              		.loc 1 647 0
 1696              		.cfi_startproc
 1697              		@ args = 0, pretend = 0, frame = 376
 1698              		@ frame_needed = 1, uses_anonymous_args = 0
 1699 0b74 90B5     		push	{r4, r7, lr}
 1700              	.LCFI21:
 1701              		.cfi_def_cfa_offset 12
 1702              		.cfi_offset 4, -12
 1703              		.cfi_offset 7, -8
 1704              		.cfi_offset 14, -4
 1705 0b76 DFB0     		sub	sp, sp, #380
 1706              	.LCFI22:
 1707              		.cfi_def_cfa_offset 392
 1708 0b78 00AF     		add	r7, sp, #0
 1709              	.LCFI23:
 1710              		.cfi_def_cfa_register 7
 1711 0b7a 07F10403 		add	r3, r7, #4
 1712 0b7e 1860     		str	r0, [r3, #0]
 1713 0b80 3B46     		mov	r3, r7
 1714 0b82 1960     		str	r1, [r3, #0]
 648:../Application/Module/Flash/Flash.c **** 	static uint8_t ReceiveMatrix[8 * (sizeof(FlashStampStruct))];
 649:../Application/Module/Flash/Flash.c **** 	static uint16_t ADCConvertedValuesCheck[14][ADC_PACKAGE_MAX_NUMBER * 12 * 2];
 650:../Application/Module/Flash/Flash.c **** 	static uint16_t ADCConvertedValuesCheck2[14][ADC_PACKAGE_MAX_NUMBER * 12];
 651:../Application/Module/Flash/Flash.c **** 	uint32_t uwAddress = 0;
 1715              		.loc 1 651 0
 1716 0b84 4FF00003 		mov	r3, #0
 1717 0b88 C7F87431 		str	r3, [r7, #372]
 652:../Application/Module/Flash/Flash.c **** 	uint32_t uwAddressRef = 0;
 1718              		.loc 1 652 0
 1719 0b8c 4FF00003 		mov	r3, #0
 1720 0b90 C7F86831 		str	r3, [r7, #360]
 653:../Application/Module/Flash/Flash.c **** 	uint32_t uwAddressAccu = 0;
 1721              		.loc 1 653 0
 1722 0b94 4FF00003 		mov	r3, #0
 1723 0b98 C7F86431 		str	r3, [r7, #356]
 654:../Application/Module/Flash/Flash.c **** 	uint32_t uwSectorCounter = 0;
 1724              		.loc 1 654 0
 1725 0b9c 4FF00003 		mov	r3, #0
 1726 0ba0 C7F86031 		str	r3, [r7, #352]
 655:../Application/Module/Flash/Flash.c **** 	uint8_t uwSelector = 0;
 1727              		.loc 1 655 0
 1728 0ba4 4FF00003 		mov	r3, #0
 1729 0ba8 87F85F31 		strb	r3, [r7, #351]
 656:../Application/Module/Flash/Flash.c **** 	uint16_t* matrixTemp = 0;
 1730              		.loc 1 656 0
 1731 0bac 4FF00003 		mov	r3, #0
 1732 0bb0 C7F87031 		str	r3, [r7, #368]
 657:../Application/Module/Flash/Flash.c **** 	FlashStampStruct flashStructGet[2];
 658:../Application/Module/Flash/Flash.c **** 	FlashStampStruct flashStructSet;
 659:../Application/Module/Flash/Flash.c **** 	FlashStampStruct flashStructBlock[14];
 660:../Application/Module/Flash/Flash.c **** 	uint8_t i = 0;
 1733              		.loc 1 660 0
 1734 0bb4 4FF00003 		mov	r3, #0
 1735 0bb8 87F86F31 		strb	r3, [r7, #367]
 661:../Application/Module/Flash/Flash.c **** 	uint8_t j = 0;
 1736              		.loc 1 661 0
 1737 0bbc 4FF00003 		mov	r3, #0
 1738 0bc0 87F86E31 		strb	r3, [r7, #366]
 662:../Application/Module/Flash/Flash.c **** 	static uint8_t k = 0;
 663:../Application/Module/Flash/Flash.c **** 
 664:../Application/Module/Flash/Flash.c **** 
 665:../Application/Module/Flash/Flash.c **** 	matrixTemp = matrix;
 1739              		.loc 1 665 0
 1740 0bc4 07F10403 		add	r3, r7, #4
 1741 0bc8 1B68     		ldr	r3, [r3, #0]
 1742 0bca C7F87031 		str	r3, [r7, #368]
 666:../Application/Module/Flash/Flash.c **** 
 667:../Application/Module/Flash/Flash.c **** 	for(i = 0; i < numberOfHalfWorlds; ++i)
 1743              		.loc 1 667 0
 1744 0bce 4FF00003 		mov	r3, #0
 1745 0bd2 87F86F31 		strb	r3, [r7, #367]
 1746 0bd6 1EE0     		b	.L134
 1747              	.L135:
 668:../Application/Module/Flash/Flash.c **** 	{
 669:../Application/Module/Flash/Flash.c **** 		ADCConvertedValuesCheck2[k][i] = *matrixTemp;
 1748              		.loc 1 669 0 discriminator 2
 1749 0bd8 A54B     		ldr	r3, .L160
 1750 0bda 1B78     		ldrb	r3, [r3, #0]	@ zero_extendqisi2
 1751 0bdc 1A46     		mov	r2, r3
 1752 0bde 97F86F41 		ldrb	r4, [r7, #367]	@ zero_extendqisi2
 1753 0be2 D7F87031 		ldr	r3, [r7, #368]
 1754 0be6 1888     		ldrh	r0, [r3, #0]
 1755 0be8 A249     		ldr	r1, .L160+4
 1756 0bea 1346     		mov	r3, r2
 1757 0bec 4FEAC303 		lsl	r3, r3, #3
 1758 0bf0 9B18     		adds	r3, r3, r2
 1759 0bf2 4FEA8303 		lsl	r3, r3, #2
 1760 0bf6 1B19     		adds	r3, r3, r4
 1761 0bf8 0246     		mov	r2, r0	@ movhi
 1762 0bfa 21F81320 		strh	r2, [r1, r3, lsl #1]	@ movhi
 670:../Application/Module/Flash/Flash.c **** 		matrixTemp++;
 1763              		.loc 1 670 0 discriminator 2
 1764 0bfe D7F87031 		ldr	r3, [r7, #368]
 1765 0c02 03F10203 		add	r3, r3, #2
 1766 0c06 C7F87031 		str	r3, [r7, #368]
 667:../Application/Module/Flash/Flash.c **** 	for(i = 0; i < numberOfHalfWorlds; ++i)
 1767              		.loc 1 667 0 discriminator 2
 1768 0c0a 97F86F31 		ldrb	r3, [r7, #367]
 1769 0c0e 03F10103 		add	r3, r3, #1
 1770 0c12 87F86F31 		strb	r3, [r7, #367]
 1771              	.L134:
 667:../Application/Module/Flash/Flash.c **** 	for(i = 0; i < numberOfHalfWorlds; ++i)
 1772              		.loc 1 667 0 is_stmt 0 discriminator 1
 1773 0c16 97F86F21 		ldrb	r2, [r7, #367]	@ zero_extendqisi2
 1774 0c1a 3B46     		mov	r3, r7
 1775 0c1c 1B68     		ldr	r3, [r3, #0]
 1776 0c1e 9A42     		cmp	r2, r3
 1777 0c20 DAD3     		bcc	.L135
 671:../Application/Module/Flash/Flash.c **** 	}
 672:../Application/Module/Flash/Flash.c **** 	k = (k == 13) ? 0 : k + 1;
 1778              		.loc 1 672 0 is_stmt 1
 1779 0c22 934B     		ldr	r3, .L160
 1780 0c24 1B78     		ldrb	r3, [r3, #0]	@ zero_extendqisi2
 1781 0c26 0D2B     		cmp	r3, #13
 1782 0c28 05D0     		beq	.L136
 1783              		.loc 1 672 0 is_stmt 0 discriminator 1
 1784 0c2a 914B     		ldr	r3, .L160
 1785 0c2c 1B78     		ldrb	r3, [r3, #0]	@ zero_extendqisi2
 1786 0c2e 03F10103 		add	r3, r3, #1
 1787 0c32 DBB2     		uxtb	r3, r3
 1788 0c34 01E0     		b	.L137
 1789              	.L136:
 1790              		.loc 1 672 0 discriminator 2
 1791 0c36 4FF00003 		mov	r3, #0
 1792              	.L137:
 1793              		.loc 1 672 0 discriminator 3
 1794 0c3a 8D4A     		ldr	r2, .L160
 1795 0c3c 1370     		strb	r3, [r2, #0]
 673:../Application/Module/Flash/Flash.c **** 
 674:../Application/Module/Flash/Flash.c **** 	GetSectorStamp(&flashStructGet[0]);
 1796              		.loc 1 674 0 is_stmt 1 discriminator 3
 1797 0c3e 07F59A73 		add	r3, r7, #308
 1798 0c42 1846     		mov	r0, r3
 1799 0c44 FFF7FEFF 		bl	GetSectorStamp
 675:../Application/Module/Flash/Flash.c **** 
 676:../Application/Module/Flash/Flash.c **** 	uwSectorCounter = flashStructGet[SectorStampSelector_Current].FlashStampStruct_uwSectorCounter;
 1800              		.loc 1 676 0 discriminator 3
 1801 0c48 D7F84C31 		ldr	r3, [r7, #332]
 1802 0c4c C7F86031 		str	r3, [r7, #352]
 677:../Application/Module/Flash/Flash.c **** 	uwAddress = flashStructGet[SectorStampSelector_Current].FlashStampStruct_uwAddress;
 1803              		.loc 1 677 0 discriminator 3
 1804 0c50 D7F84831 		ldr	r3, [r7, #328]
 1805 0c54 C7F87431 		str	r3, [r7, #372]
 678:../Application/Module/Flash/Flash.c **** 	uwSelector = flashStructGet[SectorStampSelector_Current].FlashStampStruct_uwSelector;
 1806              		.loc 1 678 0 discriminator 3
 1807 0c58 97F85031 		ldrb	r3, [r7, #336]
 1808 0c5c 87F85F31 		strb	r3, [r7, #351]
 679:../Application/Module/Flash/Flash.c **** 
 680:../Application/Module/Flash/Flash.c **** 	if(uwSelector == FlashSectorSelector_Beginning)
 1809              		.loc 1 680 0 discriminator 3
 1810 0c60 97F85F31 		ldrb	r3, [r7, #351]	@ zero_extendqisi2
 1811 0c64 002B     		cmp	r3, #0
 1812 0c66 04D1     		bne	.L138
 681:../Application/Module/Flash/Flash.c **** 	{
 682:../Application/Module/Flash/Flash.c **** 		flashStructSet.FlashStampStruct_Length = numberOfHalfWorlds;
 1813              		.loc 1 682 0
 1814 0c68 3B46     		mov	r3, r7
 1815 0c6a 1B68     		ldr	r3, [r3, #0]
 1816 0c6c C7F82C31 		str	r3, [r7, #300]
 1817 0c70 13E0     		b	.L139
 1818              	.L138:
 683:../Application/Module/Flash/Flash.c **** 	}
 684:../Application/Module/Flash/Flash.c **** 	else if(uwSelector == FlashSectorSelector_End)
 1819              		.loc 1 684 0
 1820 0c72 97F85F31 		ldrb	r3, [r7, #351]	@ zero_extendqisi2
 1821 0c76 012B     		cmp	r3, #1
 1822 0c78 0FD1     		bne	.L139
 685:../Application/Module/Flash/Flash.c **** 	{
 686:../Application/Module/Flash/Flash.c **** 		uwAddress += (flashStructGet[SectorStampSelector_Prev].FlashStampStruct_Length * 2);
 1823              		.loc 1 686 0
 1824 0c7a D7F84031 		ldr	r3, [r7, #320]
 1825 0c7e 4FEA4303 		lsl	r3, r3, #1
 1826 0c82 D7F87421 		ldr	r2, [r7, #372]
 1827 0c86 D318     		adds	r3, r2, r3
 1828 0c88 C7F87431 		str	r3, [r7, #372]
 687:../Application/Module/Flash/Flash.c **** 		flashStructSet.FlashStampStruct_Length = flashStructGet[SectorStampSelector_Prev].FlashStampStruc
 1829              		.loc 1 687 0
 1830 0c8c D7F84021 		ldr	r2, [r7, #320]
 1831 0c90 3B46     		mov	r3, r7
 1832 0c92 1B68     		ldr	r3, [r3, #0]
 1833 0c94 D318     		adds	r3, r2, r3
 1834 0c96 C7F82C31 		str	r3, [r7, #300]
 1835              	.L139:
 688:../Application/Module/Flash/Flash.c **** 	}
 689:../Application/Module/Flash/Flash.c **** 
 690:../Application/Module/Flash/Flash.c **** 	FLASH_Unlock();
 1836              		.loc 1 690 0
 1837 0c9a FFF7FEFF 		bl	FLASH_Unlock
 691:../Application/Module/Flash/Flash.c **** 
 692:../Application/Module/Flash/Flash.c **** 	if(uwSelector == FlashSectorSelector_Beginning)
 1838              		.loc 1 692 0
 1839 0c9e 97F85F31 		ldrb	r3, [r7, #351]	@ zero_extendqisi2
 1840 0ca2 002B     		cmp	r3, #0
 1841 0ca4 0DD1     		bne	.L140
 693:../Application/Module/Flash/Flash.c **** 	{
 694:../Application/Module/Flash/Flash.c **** 		FLASH_ClearFlag(FLASH_FLAG_EOP | FLASH_FLAG_OPERR | FLASH_FLAG_WRPERR |
 1842              		.loc 1 694 0
 1843 0ca6 4FF0F300 		mov	r0, #243
 1844 0caa FFF7FEFF 		bl	FLASH_ClearFlag
 695:../Application/Module/Flash/Flash.c **** 					FLASH_FLAG_PGAERR | FLASH_FLAG_PGPERR|FLASH_FLAG_PGSERR);
 696:../Application/Module/Flash/Flash.c **** 
 697:../Application/Module/Flash/Flash.c **** 		/* Strat the erase operation */
 698:../Application/Module/Flash/Flash.c **** 		/* Device voltage range supposed to be [2.7V to 3.6V], the operation will
 699:../Application/Module/Flash/Flash.c **** 		be done by word */
 700:../Application/Module/Flash/Flash.c **** 		if (FLASH_EraseSector(uwSectorCounter, VoltageRange_3) != FLASH_COMPLETE)
 1845              		.loc 1 700 0
 1846 0cae D7F86001 		ldr	r0, [r7, #352]
 1847 0cb2 4FF00201 		mov	r1, #2
 1848 0cb6 FFF7FEFF 		bl	FLASH_EraseSector
 1849 0cba 0346     		mov	r3, r0
 1850 0cbc 082B     		cmp	r3, #8
 1851 0cbe 00D0     		beq	.L140
 1852              	.L141:
 701:../Application/Module/Flash/Flash.c **** 		{
 702:../Application/Module/Flash/Flash.c **** 		/* Error occurred while sector erase.
 703:../Application/Module/Flash/Flash.c **** 		  User can add here some code to deal with this error  */
 704:../Application/Module/Flash/Flash.c **** 			while (1)
 705:../Application/Module/Flash/Flash.c **** 			{
 706:../Application/Module/Flash/Flash.c **** 			}
 1853              		.loc 1 706 0 discriminator 1
 1854 0cc0 FEE7     		b	.L141
 1855              	.L140:
 707:../Application/Module/Flash/Flash.c **** 		}
 708:../Application/Module/Flash/Flash.c **** 	}
 709:../Application/Module/Flash/Flash.c **** 
 710:../Application/Module/Flash/Flash.c **** 	uwAddressAccu = uwAddress;
 1856              		.loc 1 710 0
 1857 0cc2 D7F87431 		ldr	r3, [r7, #372]
 1858 0cc6 C7F86431 		str	r3, [r7, #356]
 711:../Application/Module/Flash/Flash.c **** 	uwAddressRef = uwAddress;
 1859              		.loc 1 711 0
 1860 0cca D7F87431 		ldr	r3, [r7, #372]
 1861 0cce C7F86831 		str	r3, [r7, #360]
 712:../Application/Module/Flash/Flash.c **** 	matrixTemp = matrix;
 1862              		.loc 1 712 0
 1863 0cd2 07F10403 		add	r3, r7, #4
 1864 0cd6 1B68     		ldr	r3, [r3, #0]
 1865 0cd8 C7F87031 		str	r3, [r7, #368]
 713:../Application/Module/Flash/Flash.c **** 
 714:../Application/Module/Flash/Flash.c **** 	while(uwAddress < (uwAddressRef + (2 * (flashStructSet.FlashStampStruct_Length))))
 1866              		.loc 1 714 0
 1867 0cdc 18E0     		b	.L142
 1868              	.L144:
 715:../Application/Module/Flash/Flash.c **** 	{
 716:../Application/Module/Flash/Flash.c **** 		if (FLASH_ProgramHalfWord(uwAddress, *matrixTemp) == FLASH_COMPLETE)
 1869              		.loc 1 716 0
 1870 0cde D7F87031 		ldr	r3, [r7, #368]
 1871 0ce2 1B88     		ldrh	r3, [r3, #0]
 1872 0ce4 D7F87401 		ldr	r0, [r7, #372]
 1873 0ce8 1946     		mov	r1, r3
 1874 0cea FFF7FEFF 		bl	FLASH_ProgramHalfWord
 1875 0cee 0346     		mov	r3, r0
 1876 0cf0 082B     		cmp	r3, #8
 1877 0cf2 0CD1     		bne	.L143
 717:../Application/Module/Flash/Flash.c **** 		{
 718:../Application/Module/Flash/Flash.c **** 			uwAddress = uwAddress + 2;
 1878              		.loc 1 718 0
 1879 0cf4 D7F87431 		ldr	r3, [r7, #372]
 1880 0cf8 03F10203 		add	r3, r3, #2
 1881 0cfc C7F87431 		str	r3, [r7, #372]
 719:../Application/Module/Flash/Flash.c **** 			matrixTemp++;
 1882              		.loc 1 719 0
 1883 0d00 D7F87031 		ldr	r3, [r7, #368]
 1884 0d04 03F10203 		add	r3, r3, #2
 1885 0d08 C7F87031 		str	r3, [r7, #368]
 1886 0d0c 00E0     		b	.L142
 1887              	.L143:
 720:../Application/Module/Flash/Flash.c **** 		}
 721:../Application/Module/Flash/Flash.c **** 		else
 722:../Application/Module/Flash/Flash.c **** 		{
 723:../Application/Module/Flash/Flash.c **** 			while (1)
 724:../Application/Module/Flash/Flash.c **** 			{
 725:../Application/Module/Flash/Flash.c **** 			}
 1888              		.loc 1 725 0 discriminator 1
 1889 0d0e FEE7     		b	.L143
 1890              	.L142:
 714:../Application/Module/Flash/Flash.c **** 	while(uwAddress < (uwAddressRef + (2 * (flashStructSet.FlashStampStruct_Length))))
 1891              		.loc 1 714 0 discriminator 1
 1892 0d10 D7F82C31 		ldr	r3, [r7, #300]
 1893 0d14 4FEA4302 		lsl	r2, r3, #1
 1894 0d18 D7F86831 		ldr	r3, [r7, #360]
 1895 0d1c D218     		adds	r2, r2, r3
 1896 0d1e D7F87431 		ldr	r3, [r7, #372]
 1897 0d22 9A42     		cmp	r2, r3
 1898 0d24 DBD8     		bhi	.L144
 726:../Application/Module/Flash/Flash.c **** 		}
 727:../Application/Module/Flash/Flash.c **** 	}
 728:../Application/Module/Flash/Flash.c **** 
 729:../Application/Module/Flash/Flash.c **** 	if(flashStructGet[SectorStampSelector_Prev].FlashStampStruct_StateMState == 13)
 1899              		.loc 1 729 0
 1900 0d26 97F84431 		ldrb	r3, [r7, #324]	@ zero_extendqisi2
 1901 0d2a 0D2B     		cmp	r3, #13
 1902 0d2c 60D1     		bne	.L145
 730:../Application/Module/Flash/Flash.c **** 	{
 731:../Application/Module/Flash/Flash.c **** 		FlashSectorStampToDefault(SectorStampToDefaultMode_In_Use);
 1903              		.loc 1 731 0
 1904 0d2e 4FF00100 		mov	r0, #1
 1905 0d32 FFF7FEFF 		bl	FlashSectorStampToDefault
 732:../Application/Module/Flash/Flash.c **** 
 733:../Application/Module/Flash/Flash.c **** 		for(i = 0; i < 14; i++)
 1906              		.loc 1 733 0
 1907 0d36 4FF00003 		mov	r3, #0
 1908 0d3a 87F86F31 		strb	r3, [r7, #367]
 1909 0d3e 24E0     		b	.L146
 1910              	.L149:
 734:../Application/Module/Flash/Flash.c **** 		{
 735:../Application/Module/Flash/Flash.c **** 			for(j = 0; j < (ADC_PACKAGE_MAX_NUMBER * 12 * 2); j++)
 1911              		.loc 1 735 0
 1912 0d40 4FF00003 		mov	r3, #0
 1913 0d44 87F86E31 		strb	r3, [r7, #366]
 1914 0d48 15E0     		b	.L147
 1915              	.L148:
 736:../Application/Module/Flash/Flash.c **** 				ADCConvertedValuesCheck[i][j] = 0;
 1916              		.loc 1 736 0 discriminator 2
 1917 0d4a 97F86F21 		ldrb	r2, [r7, #367]	@ zero_extendqisi2
 1918 0d4e 97F86E01 		ldrb	r0, [r7, #366]	@ zero_extendqisi2
 1919 0d52 4949     		ldr	r1, .L160+8
 1920 0d54 1346     		mov	r3, r2
 1921 0d56 4FEAC303 		lsl	r3, r3, #3
 1922 0d5a 9B18     		adds	r3, r3, r2
 1923 0d5c 4FEAC303 		lsl	r3, r3, #3
 1924 0d60 1B18     		adds	r3, r3, r0
 1925 0d62 4FF00002 		mov	r2, #0
 1926 0d66 21F81320 		strh	r2, [r1, r3, lsl #1]	@ movhi
 735:../Application/Module/Flash/Flash.c **** 			for(j = 0; j < (ADC_PACKAGE_MAX_NUMBER * 12 * 2); j++)
 1927              		.loc 1 735 0 discriminator 2
 1928 0d6a 97F86E31 		ldrb	r3, [r7, #366]
 1929 0d6e 03F10103 		add	r3, r3, #1
 1930 0d72 87F86E31 		strb	r3, [r7, #366]
 1931              	.L147:
 735:../Application/Module/Flash/Flash.c **** 			for(j = 0; j < (ADC_PACKAGE_MAX_NUMBER * 12 * 2); j++)
 1932              		.loc 1 735 0 is_stmt 0 discriminator 1
 1933 0d76 97F86E31 		ldrb	r3, [r7, #366]	@ zero_extendqisi2
 1934 0d7a 472B     		cmp	r3, #71
 1935 0d7c E5D9     		bls	.L148
 733:../Application/Module/Flash/Flash.c **** 		for(i = 0; i < 14; i++)
 1936              		.loc 1 733 0 is_stmt 1
 1937 0d7e 97F86F31 		ldrb	r3, [r7, #367]
 1938 0d82 03F10103 		add	r3, r3, #1
 1939 0d86 87F86F31 		strb	r3, [r7, #367]
 1940              	.L146:
 733:../Application/Module/Flash/Flash.c **** 		for(i = 0; i < 14; i++)
 1941              		.loc 1 733 0 is_stmt 0 discriminator 1
 1942 0d8a 97F86F31 		ldrb	r3, [r7, #367]	@ zero_extendqisi2
 1943 0d8e 0D2B     		cmp	r3, #13
 1944 0d90 D6D9     		bls	.L149
 737:../Application/Module/Flash/Flash.c **** 		}
 738:../Application/Module/Flash/Flash.c **** 
 739:../Application/Module/Flash/Flash.c **** 		for(i = 0; i < 14; i++)
 1945              		.loc 1 739 0 is_stmt 1
 1946 0d92 4FF00003 		mov	r3, #0
 1947 0d96 87F86F31 		strb	r3, [r7, #367]
 1948 0d9a 24E0     		b	.L150
 1949              	.L153:
 740:../Application/Module/Flash/Flash.c **** 		{
 741:../Application/Module/Flash/Flash.c **** 			for(j = 0; j < (ADC_PACKAGE_MAX_NUMBER * 12); j++)
 1950              		.loc 1 741 0
 1951 0d9c 4FF00003 		mov	r3, #0
 1952 0da0 87F86E31 		strb	r3, [r7, #366]
 1953 0da4 15E0     		b	.L151
 1954              	.L152:
 742:../Application/Module/Flash/Flash.c **** 				ADCConvertedValuesCheck2[i][j] = 0;
 1955              		.loc 1 742 0 discriminator 2
 1956 0da6 97F86F21 		ldrb	r2, [r7, #367]	@ zero_extendqisi2
 1957 0daa 97F86E01 		ldrb	r0, [r7, #366]	@ zero_extendqisi2
 1958 0dae 3149     		ldr	r1, .L160+4
 1959 0db0 1346     		mov	r3, r2
 1960 0db2 4FEAC303 		lsl	r3, r3, #3
 1961 0db6 9B18     		adds	r3, r3, r2
 1962 0db8 4FEA8303 		lsl	r3, r3, #2
 1963 0dbc 1B18     		adds	r3, r3, r0
 1964 0dbe 4FF00002 		mov	r2, #0
 1965 0dc2 21F81320 		strh	r2, [r1, r3, lsl #1]	@ movhi
 741:../Application/Module/Flash/Flash.c **** 			for(j = 0; j < (ADC_PACKAGE_MAX_NUMBER * 12); j++)
 1966              		.loc 1 741 0 discriminator 2
 1967 0dc6 97F86E31 		ldrb	r3, [r7, #366]
 1968 0dca 03F10103 		add	r3, r3, #1
 1969 0dce 87F86E31 		strb	r3, [r7, #366]
 1970              	.L151:
 741:../Application/Module/Flash/Flash.c **** 			for(j = 0; j < (ADC_PACKAGE_MAX_NUMBER * 12); j++)
 1971              		.loc 1 741 0 is_stmt 0 discriminator 1
 1972 0dd2 97F86E31 		ldrb	r3, [r7, #366]	@ zero_extendqisi2
 1973 0dd6 232B     		cmp	r3, #35
 1974 0dd8 E5D9     		bls	.L152
 739:../Application/Module/Flash/Flash.c **** 		for(i = 0; i < 14; i++)
 1975              		.loc 1 739 0 is_stmt 1
 1976 0dda 97F86F31 		ldrb	r3, [r7, #367]
 1977 0dde 03F10103 		add	r3, r3, #1
 1978 0de2 87F86F31 		strb	r3, [r7, #367]
 1979              	.L150:
 739:../Application/Module/Flash/Flash.c **** 		for(i = 0; i < 14; i++)
 1980              		.loc 1 739 0 is_stmt 0 discriminator 1
 1981 0de6 97F86F31 		ldrb	r3, [r7, #367]	@ zero_extendqisi2
 1982 0dea 0D2B     		cmp	r3, #13
 1983 0dec D6D9     		bls	.L153
 739:../Application/Module/Flash/Flash.c **** 		for(i = 0; i < 14; i++)
 1984              		.loc 1 739 0
 1985 0dee 0BE0     		b	.L154
 1986              	.L145:
 743:../Application/Module/Flash/Flash.c **** 		}
 744:../Application/Module/Flash/Flash.c **** 	}
 745:../Application/Module/Flash/Flash.c **** 
 746:../Application/Module/Flash/Flash.c **** 	else
 747:../Application/Module/Flash/Flash.c **** 	{
 748:../Application/Module/Flash/Flash.c **** 		flashStructSet.FlashStampStruct_StateMState = flashStructGet[SectorStampSelector_Prev].FlashStamp
 1987              		.loc 1 748 0 is_stmt 1
 1988 0df0 97F84431 		ldrb	r3, [r7, #324]	@ zero_extendqisi2
 1989 0df4 03F10103 		add	r3, r3, #1
 1990 0df8 DBB2     		uxtb	r3, r3
 1991 0dfa 87F83031 		strb	r3, [r7, #304]
 749:../Application/Module/Flash/Flash.c **** 		SetSectorStamp(&flashStructSet);
 1992              		.loc 1 749 0
 1993 0dfe 07F59073 		add	r3, r7, #288
 1994 0e02 1846     		mov	r0, r3
 1995 0e04 FFF7FEFF 		bl	SetSectorStamp
 1996              	.L154:
 750:../Application/Module/Flash/Flash.c **** 	}
 751:../Application/Module/Flash/Flash.c **** 
 752:../Application/Module/Flash/Flash.c **** 	FLASH_Lock();
 1997              		.loc 1 752 0
 1998 0e08 FFF7FEFF 		bl	FLASH_Lock
 753:../Application/Module/Flash/Flash.c **** 
 754:../Application/Module/Flash/Flash.c **** 	GetSectorStamp2(&flashStructBlock[0]);
 1999              		.loc 1 754 0
 2000 0e0c 07F10803 		add	r3, r7, #8
 2001 0e10 1846     		mov	r0, r3
 2002 0e12 FFF7FEFF 		bl	GetSectorStamp2
 755:../Application/Module/Flash/Flash.c **** 
 756:../Application/Module/Flash/Flash.c **** 	for(i = 0; i < 14; i++)
 2003              		.loc 1 756 0
 2004 0e16 4FF00003 		mov	r3, #0
 2005 0e1a 87F86F31 		strb	r3, [r7, #367]
 2006 0e1e 69E0     		b	.L155
 2007              	.L159:
 757:../Application/Module/Flash/Flash.c **** 	{
 758:../Application/Module/Flash/Flash.c **** 		j = 0;
 2008              		.loc 1 758 0
 2009 0e20 4FF00003 		mov	r3, #0
 2010 0e24 87F86E31 		strb	r3, [r7, #366]
 759:../Application/Module/Flash/Flash.c **** 
 760:../Application/Module/Flash/Flash.c **** 		uwAddress = flashStructBlock[i].FlashStampStruct_uwAddress;
 2011              		.loc 1 760 0
 2012 0e28 97F86F21 		ldrb	r2, [r7, #367]	@ zero_extendqisi2
 2013 0e2c 07F10801 		add	r1, r7, #8
 2014 0e30 1346     		mov	r3, r2
 2015 0e32 4FEA8303 		lsl	r3, r3, #2
 2016 0e36 9B18     		adds	r3, r3, r2
 2017 0e38 4FEA8303 		lsl	r3, r3, #2
 2018 0e3c CB18     		adds	r3, r1, r3
 2019 0e3e 1B68     		ldr	r3, [r3, #0]
 2020 0e40 C7F87431 		str	r3, [r7, #372]
 761:../Application/Module/Flash/Flash.c **** 		uwAddressRef = uwAddress;
 2021              		.loc 1 761 0
 2022 0e44 D7F87431 		ldr	r3, [r7, #372]
 2023 0e48 C7F86831 		str	r3, [r7, #360]
 762:../Application/Module/Flash/Flash.c **** 
 763:../Application/Module/Flash/Flash.c **** 		if(flashStructBlock[i].FlashStampStruct_Length != 0xFFFFFFFF)
 2024              		.loc 1 763 0
 2025 0e4c 97F86F21 		ldrb	r2, [r7, #367]	@ zero_extendqisi2
 2026 0e50 07F10801 		add	r1, r7, #8
 2027 0e54 1346     		mov	r3, r2
 2028 0e56 4FEA8303 		lsl	r3, r3, #2
 2029 0e5a 9B18     		adds	r3, r3, r2
 2030 0e5c 4FEA8303 		lsl	r3, r3, #2
 2031 0e60 CB18     		adds	r3, r1, r3
 2032 0e62 03F10803 		add	r3, r3, #8
 2033 0e66 5B68     		ldr	r3, [r3, #4]
 2034 0e68 B3F1FF3F 		cmp	r3, #-1
 2035 0e6c 3CD0     		beq	.L156
 764:../Application/Module/Flash/Flash.c **** 		{
 765:../Application/Module/Flash/Flash.c **** 			while(uwAddress < (uwAddressRef + (2 * flashStructBlock[i].FlashStampStruct_Length)))
 2036              		.loc 1 765 0
 2037 0e6e 24E0     		b	.L157
 2038              	.L161:
 2039              		.align	2
 2040              	.L160:
 2041 0e70 00000000 		.word	k.6170
 2042 0e74 04000000 		.word	ADCConvertedValuesCheck2.6158
 2043 0e78 F4030000 		.word	ADCConvertedValuesCheck.6157
 2044              	.L158:
 766:../Application/Module/Flash/Flash.c **** 			{
 767:../Application/Module/Flash/Flash.c **** 				ADCConvertedValuesCheck[i][j] = *(__IO uint16_t*)uwAddress;
 2045              		.loc 1 767 0
 2046 0e7c 97F86F21 		ldrb	r2, [r7, #367]	@ zero_extendqisi2
 2047 0e80 97F86E41 		ldrb	r4, [r7, #366]	@ zero_extendqisi2
 2048 0e84 D7F87431 		ldr	r3, [r7, #372]
 2049 0e88 1B88     		ldrh	r3, [r3, #0]	@ movhi
 2050 0e8a 98B2     		uxth	r0, r3
 2051 0e8c 1D49     		ldr	r1, .L162
 2052 0e8e 1346     		mov	r3, r2
 2053 0e90 4FEAC303 		lsl	r3, r3, #3
 2054 0e94 9B18     		adds	r3, r3, r2
 2055 0e96 4FEAC303 		lsl	r3, r3, #3
 2056 0e9a 1B19     		adds	r3, r3, r4
 2057 0e9c 0246     		mov	r2, r0	@ movhi
 2058 0e9e 21F81320 		strh	r2, [r1, r3, lsl #1]	@ movhi
 768:../Application/Module/Flash/Flash.c **** 				j++;
 2059              		.loc 1 768 0
 2060 0ea2 97F86E31 		ldrb	r3, [r7, #366]
 2061 0ea6 03F10103 		add	r3, r3, #1
 2062 0eaa 87F86E31 		strb	r3, [r7, #366]
 769:../Application/Module/Flash/Flash.c **** 				uwAddress = uwAddress + 2;
 2063              		.loc 1 769 0
 2064 0eae D7F87431 		ldr	r3, [r7, #372]
 2065 0eb2 03F10203 		add	r3, r3, #2
 2066 0eb6 C7F87431 		str	r3, [r7, #372]
 2067              	.L157:
 765:../Application/Module/Flash/Flash.c **** 			while(uwAddress < (uwAddressRef + (2 * flashStructBlock[i].FlashStampStruct_Length)))
 2068              		.loc 1 765 0 discriminator 1
 2069 0eba 97F86F21 		ldrb	r2, [r7, #367]	@ zero_extendqisi2
 2070 0ebe 07F10801 		add	r1, r7, #8
 2071 0ec2 1346     		mov	r3, r2
 2072 0ec4 4FEA8303 		lsl	r3, r3, #2
 2073 0ec8 9B18     		adds	r3, r3, r2
 2074 0eca 4FEA8303 		lsl	r3, r3, #2
 2075 0ece CB18     		adds	r3, r1, r3
 2076 0ed0 03F10803 		add	r3, r3, #8
 2077 0ed4 5B68     		ldr	r3, [r3, #4]
 2078 0ed6 4FEA4302 		lsl	r2, r3, #1
 2079 0eda D7F86831 		ldr	r3, [r7, #360]
 2080 0ede D218     		adds	r2, r2, r3
 2081 0ee0 D7F87431 		ldr	r3, [r7, #372]
 2082 0ee4 9A42     		cmp	r2, r3
 2083 0ee6 C9D8     		bhi	.L158
 2084              	.L156:
 756:../Application/Module/Flash/Flash.c **** 	for(i = 0; i < 14; i++)
 2085              		.loc 1 756 0
 2086 0ee8 97F86F31 		ldrb	r3, [r7, #367]
 2087 0eec 03F10103 		add	r3, r3, #1
 2088 0ef0 87F86F31 		strb	r3, [r7, #367]
 2089              	.L155:
 756:../Application/Module/Flash/Flash.c **** 	for(i = 0; i < 14; i++)
 2090              		.loc 1 756 0 is_stmt 0 discriminator 1
 2091 0ef4 97F86F31 		ldrb	r3, [r7, #367]	@ zero_extendqisi2
 2092 0ef8 0D2B     		cmp	r3, #13
 2093 0efa 91D9     		bls	.L159
 770:../Application/Module/Flash/Flash.c **** 			}
 771:../Application/Module/Flash/Flash.c **** 		}
 772:../Application/Module/Flash/Flash.c **** 	}
 773:../Application/Module/Flash/Flash.c **** }
 2094              		.loc 1 773 0 is_stmt 1
 2095 0efc 07F5BE77 		add	r7, r7, #380
 2096 0f00 BD46     		mov	sp, r7
 2097 0f02 90BD     		pop	{r4, r7, pc}
 2098              	.L163:
 2099              		.align	2
 2100              	.L162:
 2101 0f04 F4030000 		.word	ADCConvertedValuesCheck.6157
 2102              		.cfi_endproc
 2103              	.LFE117:
 2105              		.bss
 2106              	k.6170:
 2107 0000 00       		.space	1
 2108 0001 000000   		.align	2
 2109              	ADCConvertedValuesCheck2.6158:
 2110 0004 00000000 		.space	1008
 2110      00000000 
 2110      00000000 
 2110      00000000 
 2110      00000000 
 2111              		.align	2
 2112              	ADCConvertedValuesCheck.6157:
 2113 03f4 00000000 		.space	2016
 2113      00000000 
 2113      00000000 
 2113      00000000 
 2113      00000000 
 2114              		.align	2
 2115              	ReceiveMatrix.6156:
 2116 0bd4 00000000 		.space	160
 2116      00000000 
 2116      00000000 
 2116      00000000 
 2116      00000000 
 2117              		.text
 2118              	.Letext0:
 2119              		.file 2 "c:\\program files (x86)\\codesourcery\\sourcery_codebench_lite_for_arm_eabi\\bin\\../lib/
 2120              		.file 3 "../Application/Module/Flash/Flash.h"
 2121              		.file 4 "C:\\Users\\Gergo\\workspace\\estevan\\Libraries\\STM32F4xx_StdPeriph_Driver\\inc/stm32f4x
 2122              		.file 5 "C:\\Users\\Gergo\\workspace\\estevan\\src/stm32f4_discovery.h"
 2123              		.file 6 "C:\\Users\\Gergo\\workspace\\estevan\\Libraries\\CMSIS\\Include/core_cm4.h"